(imatplotlib.font_manager
FontManager
p1
(dp2
S'afm_lookup_cache'
p3
(dp4
sS'ttflist'
p5
(lp6
ccopy_reg
_reconstructor
p7
(cmatplotlib.font_manager
FontEntry
p8
c__builtin__
object
p9
NtRp10
(dp11
S'style'
p12
S'oblique'
p13
sS'name'
p14
S'Bitstream Vera Sans Mono'
p15
sS'weight'
p16
I700
sS'stretch'
p17
S'normal'
p18
sS'variant'
p19
g18
sS'fname'
p20
S'/projects/sage/sage-6.7/local/lib/python2.7/site-packages/matplotlib-1.3.1-py2.7-linux-x86_64.egg/matplotlib/mpl-data/fonts/ttf/VeraMoBI.ttf'
p21
sS'size'
p22
S'scalable'
p23
sbag7
(g8
g9
NtRp24
(dp25
g12
g18
sg14
S'cmb10'
p26
sg16
I400
sg17
g18
sg19
g18
sg20
S'/projects/sage/sage-6.7/local/lib/python2.7/site-packages/matplotlib-1.3.1-py2.7-linux-x86_64.egg/matplotlib/mpl-data/fonts/ttf/cmb10.ttf'
p27
sg22
g23
sbag7
(g8
g9
NtRp28
(dp29
g12
g18
sg14
S'STIXSizeFourSym'
p30
sg16
I700
sg17
g18
sg19
g18
sg20
S'/projects/sage/sage-6.7/local/lib/python2.7/site-packages/matplotlib-1.3.1-py2.7-linux-x86_64.egg/matplotlib/mpl-data/fonts/ttf/STIXSizFourSymBol.ttf'
p31
sg22
g23
sbag7
(g8
g9
NtRp32
(dp33
g12
g18
sg14
S'Bitstream Vera Sans Mono'
p34
sg16
I700
sg17
g18
sg19
g18
sg20
S'/projects/sage/sage-6.7/local/lib/python2.7/site-packages/matplotlib-1.3.1-py2.7-linux-x86_64.egg/matplotlib/mpl-data/fonts/ttf/VeraMoBd.ttf'
p35
sg22
g23
sbag7
(g8
g9
NtRp36
(dp37
g12
S'italic'
p38
sg14
S'STIXNonUnicode'
p39
sg16
I400
sg17
g18
sg19
g18
sg20
S'/projects/sage/sage-6.7/local/lib/python2.7/site-packages/matplotlib-1.3.1-py2.7-linux-x86_64.egg/matplotlib/mpl-data/fonts/ttf/STIXNonUniIta.ttf'
p40
sg22
g23
sbag7
(g8
g9
NtRp41
(dp42
g12
g18
sg14
S'cmsy10'
p43
sg16
I400
sg17
g18
sg19
g18
sg20
S'/projects/sage/sage-6.7/local/lib/python2.7/site-packages/matplotlib-1.3.1-py2.7-linux-x86_64.egg/matplotlib/mpl-data/fonts/ttf/cmsy10.ttf'
p44
sg22
g23
sbag7
(g8
g9
NtRp45
(dp46
g12
g18
sg14
S'cmex10'
p47
sg16
I400
sg17
g18
sg19
g18
sg20
S'/projects/sage/sage-6.7/local/lib/python2.7/site-packages/matplotlib-1.3.1-py2.7-linux-x86_64.egg/matplotlib/mpl-data/fonts/ttf/cmex10.ttf'
p48
sg22
g23
sbag7
(g8
g9
NtRp49
(dp50
g12
g13
sg14
S'Bitstream Vera Sans Mono'
p51
sg16
I400
sg17
g18
sg19
g18
sg20
S'/projects/sage/sage-6.7/local/lib/python2.7/site-packages/matplotlib-1.3.1-py2.7-linux-x86_64.egg/matplotlib/mpl-data/fonts/ttf/VeraMoIt.ttf'
p52
sg22
g23
sbag7
(g8
g9
NtRp53
(dp54
g12
g18
sg14
S'STIXSizeOneSym'
p55
sg16
I700
sg17
g18
sg19
g18
sg20
S'/projects/sage/sage-6.7/local/lib/python2.7/site-packages/matplotlib-1.3.1-py2.7-linux-x86_64.egg/matplotlib/mpl-data/fonts/ttf/STIXSizOneSymBol.ttf'
p56
sg22
g23
sbag7
(g8
g9
NtRp57
(dp58
g12
g38
sg14
S'STIXNonUnicode'
p59
sg16
I700
sg17
g18
sg19
g18
sg20
S'/projects/sage/sage-6.7/local/lib/python2.7/site-packages/matplotlib-1.3.1-py2.7-linux-x86_64.egg/matplotlib/mpl-data/fonts/ttf/STIXNonUniBolIta.ttf'
p60
sg22
g23
sbag7
(g8
g9
NtRp61
(dp62
g12
g13
sg14
S'Bitstream Vera Sans'
p63
sg16
I700
sg17
g18
sg19
g18
sg20
S'/projects/sage/sage-6.7/local/lib/python2.7/site-packages/matplotlib-1.3.1-py2.7-linux-x86_64.egg/matplotlib/mpl-data/fonts/ttf/VeraBI.ttf'
p64
sg22
g23
sbag7
(g8
g9
NtRp65
(dp66
g12
g18
sg14
S'STIXSizeFourSym'
p67
sg16
I400
sg17
g18
sg19
g18
sg20
S'/projects/sage/sage-6.7/local/lib/python2.7/site-packages/matplotlib-1.3.1-py2.7-linux-x86_64.egg/matplotlib/mpl-data/fonts/ttf/STIXSizFourSymReg.ttf'
p68
sg22
g23
sbag7
(g8
g9
NtRp69
(dp70
g12
g18
sg14
S'Bitstream Vera Sans Mono'
p71
sg16
I400
sg17
g18
sg19
g18
sg20
S'/projects/sage/sage-6.7/local/lib/python2.7/site-packages/matplotlib-1.3.1-py2.7-linux-x86_64.egg/matplotlib/mpl-data/fonts/ttf/VeraMono.ttf'
p72
sg22
g23
sbag7
(g8
g9
NtRp73
(dp74
g12
g38
sg14
S'STIXGeneral'
p75
sg16
I700
sg17
g18
sg19
g18
sg20
S'/projects/sage/sage-6.7/local/lib/python2.7/site-packages/matplotlib-1.3.1-py2.7-linux-x86_64.egg/matplotlib/mpl-data/fonts/ttf/STIXGeneralBolIta.ttf'
p76
sg22
g23
sbag7
(g8
g9
NtRp77
(dp78
g12
g18
sg14
S'cmtt10'
p79
sg16
I400
sg17
g18
sg19
g18
sg20
S'/projects/sage/sage-6.7/local/lib/python2.7/site-packages/matplotlib-1.3.1-py2.7-linux-x86_64.egg/matplotlib/mpl-data/fonts/ttf/cmtt10.ttf'
p80
sg22
g23
sbag7
(g8
g9
NtRp81
(dp82
g12
g13
sg14
S'Bitstream Vera Sans'
p83
sg16
I400
sg17
g18
sg19
g18
sg20
S'/projects/sage/sage-6.7/local/lib/python2.7/site-packages/matplotlib-1.3.1-py2.7-linux-x86_64.egg/matplotlib/mpl-data/fonts/ttf/VeraIt.ttf'
p84
sg22
g23
sbag7
(g8
g9
NtRp85
(dp86
g12
g18
sg14
S'STIXSizeThreeSym'
p87
sg16
I700
sg17
g18
sg19
g18
sg20
S'/projects/sage/sage-6.7/local/lib/python2.7/site-packages/matplotlib-1.3.1-py2.7-linux-x86_64.egg/matplotlib/mpl-data/fonts/ttf/STIXSizThreeSymBol.ttf'
p88
sg22
g23
sbag7
(g8
g9
NtRp89
(dp90
g12
g18
sg14
S'STIXSizeOneSym'
p91
sg16
I400
sg17
g18
sg19
g18
sg20
S'/projects/sage/sage-6.7/local/lib/python2.7/site-packages/matplotlib-1.3.1-py2.7-linux-x86_64.egg/matplotlib/mpl-data/fonts/ttf/STIXSizOneSymReg.ttf'
p92
sg22
g23
sbag7
(g8
g9
NtRp93
(dp94
g12
g18
sg14
S'STIXGeneral'
p95
sg16
I700
sg17
g18
sg19
g18
sg20
S'/projects/sage/sage-6.7/local/lib/python2.7/site-packages/matplotlib-1.3.1-py2.7-linux-x86_64.egg/matplotlib/mpl-data/fonts/ttf/STIXGeneralBol.ttf'
p96
sg22
g23
sbag7
(g8
g9
NtRp97
(dp98
g12
g18
sg14
S'cmr10'
p99
sg16
I400
sg17
g18
sg19
g18
sg20
S'/projects/sage/sage-6.7/local/lib/python2.7/site-packages/matplotlib-1.3.1-py2.7-linux-x86_64.egg/matplotlib/mpl-data/fonts/ttf/cmr10.ttf'
p100
sg22
g23
sbag7
(g8
g9
NtRp101
(dp102
g12
g18
sg14
S'Bitstream Vera Serif'
p103
sg16
I400
sg17
g18
sg19
g18
sg20
S'/projects/sage/sage-6.7/local/lib/python2.7/site-packages/matplotlib-1.3.1-py2.7-linux-x86_64.egg/matplotlib/mpl-data/fonts/ttf/VeraSe.ttf'
p104
sg22
g23
sbag7
(g8
g9
NtRp105
(dp106
g12
g18
sg14
S'STIXSizeThreeSym'
p107
sg16
I400
sg17
g18
sg19
g18
sg20
S'/projects/sage/sage-6.7/local/lib/python2.7/site-packages/matplotlib-1.3.1-py2.7-linux-x86_64.egg/matplotlib/mpl-data/fonts/ttf/STIXSizThreeSymReg.ttf'
p108
sg22
g23
sbag7
(g8
g9
NtRp109
(dp110
g12
g18
sg14
S'Bitstream Vera Sans'
p111
sg16
I400
sg17
g18
sg19
g18
sg20
S'/projects/sage/sage-6.7/local/lib/python2.7/site-packages/matplotlib-1.3.1-py2.7-linux-x86_64.egg/matplotlib/mpl-data/fonts/ttf/Vera.ttf'
p112
sg22
g23
sbag7
(g8
g9
NtRp113
(dp114
g12
g18
sg14
S'STIXNonUnicode'
p115
sg16
I400
sg17
g18
sg19
g18
sg20
S'/projects/sage/sage-6.7/local/lib/python2.7/site-packages/matplotlib-1.3.1-py2.7-linux-x86_64.egg/matplotlib/mpl-data/fonts/ttf/STIXNonUni.ttf'
p116
sg22
g23
sbag7
(g8
g9
NtRp117
(dp118
g12
g18
sg14
S'cmss10'
p119
sg16
I400
sg17
g18
sg19
g18
sg20
S'/projects/sage/sage-6.7/local/lib/python2.7/site-packages/matplotlib-1.3.1-py2.7-linux-x86_64.egg/matplotlib/mpl-data/fonts/ttf/cmss10.ttf'
p120
sg22
g23
sbag7
(g8
g9
NtRp121
(dp122
g12
g18
sg14
S'STIXNonUnicode'
p123
sg16
I700
sg17
g18
sg19
g18
sg20
S'/projects/sage/sage-6.7/local/lib/python2.7/site-packages/matplotlib-1.3.1-py2.7-linux-x86_64.egg/matplotlib/mpl-data/fonts/ttf/STIXNonUniBol.ttf'
p124
sg22
g23
sbag7
(g8
g9
NtRp125
(dp126
g12
g18
sg14
S'Bitstream Vera Sans'
p127
sg16
I700
sg17
g18
sg19
g18
sg20
S'/projects/sage/sage-6.7/local/lib/python2.7/site-packages/matplotlib-1.3.1-py2.7-linux-x86_64.egg/matplotlib/mpl-data/fonts/ttf/VeraBd.ttf'
p128
sg22
g23
sbag7
(g8
g9
NtRp129
(dp130
g12
g18
sg14
S'STIXGeneral'
p131
sg16
I400
sg17
g18
sg19
g18
sg20
S'/projects/sage/sage-6.7/local/lib/python2.7/site-packages/matplotlib-1.3.1-py2.7-linux-x86_64.egg/matplotlib/mpl-data/fonts/ttf/STIXGeneral.ttf'
p132
sg22
g23
sbag7
(g8
g9
NtRp133
(dp134
g12
g18
sg14
S'Bitstream Vera Serif'
p135
sg16
I700
sg17
g18
sg19
g18
sg20
S'/projects/sage/sage-6.7/local/lib/python2.7/site-packages/matplotlib-1.3.1-py2.7-linux-x86_64.egg/matplotlib/mpl-data/fonts/ttf/VeraSeBd.ttf'
p136
sg22
g23
sbag7
(g8
g9
NtRp137
(dp138
g12
g18
sg14
S'STIXSizeTwoSym'
p139
sg16
I700
sg17
g18
sg19
g18
sg20
S'/projects/sage/sage-6.7/local/lib/python2.7/site-packages/matplotlib-1.3.1-py2.7-linux-x86_64.egg/matplotlib/mpl-data/fonts/ttf/STIXSizTwoSymBol.ttf'
p140
sg22
g23
sbag7
(g8
g9
NtRp141
(dp142
g12
g18
sg14
S'cmmi10'
p143
sg16
I400
sg17
g18
sg19
g18
sg20
S'/projects/sage/sage-6.7/local/lib/python2.7/site-packages/matplotlib-1.3.1-py2.7-linux-x86_64.egg/matplotlib/mpl-data/fonts/ttf/cmmi10.ttf'
p144
sg22
g23
sbag7
(g8
g9
NtRp145
(dp146
g12
g18
sg14
S'STIXSizeFiveSym'
p147
sg16
I400
sg17
g18
sg19
g18
sg20
S'/projects/sage/sage-6.7/local/lib/python2.7/site-packages/matplotlib-1.3.1-py2.7-linux-x86_64.egg/matplotlib/mpl-data/fonts/ttf/STIXSizFiveSymReg.ttf'
p148
sg22
g23
sbag7
(g8
g9
NtRp149
(dp150
g12
g38
sg14
S'STIXGeneral'
p151
sg16
I400
sg17
g18
sg19
g18
sg20
S'/projects/sage/sage-6.7/local/lib/python2.7/site-packages/matplotlib-1.3.1-py2.7-linux-x86_64.egg/matplotlib/mpl-data/fonts/ttf/STIXGeneralItalic.ttf'
p152
sg22
g23
sbag7
(g8
g9
NtRp153
(dp154
g12
g18
sg14
S'STIXSizeTwoSym'
p155
sg16
I400
sg17
g18
sg19
g18
sg20
S'/projects/sage/sage-6.7/local/lib/python2.7/site-packages/matplotlib-1.3.1-py2.7-linux-x86_64.egg/matplotlib/mpl-data/fonts/ttf/STIXSizTwoSymReg.ttf'
p156
sg22
g23
sbag7
(g8
g9
NtRp157
(dp158
g12
g18
sg14
S'Lato'
p159
sg16
I400
sg17
g18
sg19
g18
sg20
S'/usr/share/fonts/truetype/lato/Lato-Hairline.ttf'
p160
sg22
g23
sbag7
(g8
g9
NtRp161
(dp162
g12
g18
sg14
S'STIXIntegralsUp'
p163
sg16
I400
sg17
g18
sg19
g18
sg20
S'/usr/share/fonts/opentype/stix/STIXIntegralsUp-Regular.otf'
p164
sg22
g23
sbag7
(g8
g9
NtRp165
(dp166
g12
g18
sg14
S'Droid Sans Ethiopic'
p167
sg16
I700
sg17
g18
sg19
g18
sg20
S'/usr/share/fonts/truetype/droid/DroidSansEthiopic-Bold.ttf'
p168
sg22
g23
sbag7
(g8
g9
NtRp169
(dp170
g12
g38
sg14
S'Latin Modern Roman'
p171
sg16
I500
sg17
g18
sg19
g18
sg20
S'/usr/share/texmf/fonts/opentype/public/lm/lmroman8-italic.otf'
p172
sg22
g23
sbag7
(g8
g9
NtRp173
(dp174
g12
g18
sg14
S'Latin Modern Mono Caps'
p175
sg16
I400
sg17
g18
sg19
g18
sg20
S'/usr/share/texmf/fonts/opentype/public/lm/lmmonocaps10-regular.otf'
p176
sg22
g23
sbag7
(g8
g9
NtRp177
(dp178
g12
g18
sg14
S'Inconsolata'
p179
sg16
I400
sg17
g18
sg19
g18
sg20
S'/usr/share/fonts/truetype/inconsolata/Inconsolata.otf'
p180
sg22
g23
sbag7
(g8
g9
NtRp181
(dp182
g12
g18
sg14
S'Gillius ADF Cd'
p183
sg16
I400
sg17
g18
sg19
g18
sg20
S'/usr/share/fonts/truetype/adf/GilliusADFCd-Regular.otf'
p184
sg22
g23
sbag7
(g8
g9
NtRp185
(dp186
g12
g13
sg14
S'Universalis ADF Cd Std'
p187
sg16
I700
sg17
g18
sg19
g18
sg20
S'/usr/share/fonts/truetype/adf/UniversalisADFCdStd-BdOblique.otf'
p188
sg22
g23
sbag7
(g8
g9
NtRp189
(dp190
g12
g38
sg14
S'Gentium Basic'
p191
sg16
I400
sg17
g18
sg19
g18
sg20
S'/usr/share/fonts/truetype/gentium-basic/GenBasI.ttf'
p192
sg22
g23
sbag7
(g8
g9
NtRp193
(dp194
g12
g18
sg14
S'EB Garamond'
p195
sg16
I400
sg17
g18
sg19
g18
sg20
S'/usr/share/fonts/opentype/ebgaramond/EBGaramond08-Regular.otf'
p196
sg22
g23
sbag7
(g8
g9
NtRp197
(dp198
g12
g38
sg14
S'Latin Modern Roman'
p199
sg16
I500
sg17
g18
sg19
g18
sg20
S'/usr/share/texmf/fonts/opentype/public/lm/lmroman10-italic.otf'
p200
sg22
g23
sbag7
(g8
g9
NtRp201
(dp202
g12
g18
sg14
S'Junicode'
p203
sg16
I400
sg17
g18
sg19
g18
sg20
S'/usr/share/fonts/truetype/junicode/Junicode.ttf'
p204
sg22
g23
sbag7
(g8
g9
NtRp205
(dp206
g12
g38
sg14
S'Gentium Book Basic'
p207
sg16
I700
sg17
g18
sg19
g18
sg20
S'/usr/share/fonts/truetype/gentium-basic/GenBkBasBI.ttf'
p208
sg22
g23
sbag7
(g8
g9
NtRp209
(dp210
g12
g18
sg14
S'IPAexGothic'
p211
sg16
I400
sg17
g18
sg19
g18
sg20
S'/usr/share/fonts/truetype/fonts-japanese-gothic.ttf'
p212
sg22
g23
sbag7
(g8
g9
NtRp213
(dp214
g12
g18
sg14
S'Gentium Book Basic'
p215
sg16
I400
sg17
g18
sg19
g18
sg20
S'/usr/share/fonts/truetype/gentium-basic/GenBkBasR.ttf'
p216
sg22
g23
sbag7
(g8
g9
NtRp217
(dp218
g12
g38
sg14
S'Amiri'
p219
sg16
I700
sg17
g18
sg19
g18
sg20
S'/usr/share/fonts/opentype/fonts-hosny-amiri/amiri-boldslanted.ttf'
p220
sg22
g23
sbag7
(g8
g9
NtRp221
(dp222
g12
g18
sg14
S'Linux Libertine O'
p223
sg16
I700
sg17
g18
sg19
g18
sg20
S'/usr/share/fonts/opentype/linux-libertine/LinLibertine_RZ.otf'
p224
sg22
g23
sbag7
(g8
g9
NtRp225
(dp226
g12
g18
sg14
S'Asana Math'
p227
sg16
I400
sg17
g18
sg19
g18
sg20
S'/usr/share/fonts/truetype/asana-math/Asana-Math.otf'
p228
sg22
g23
sbag7
(g8
g9
NtRp229
(dp230
g12
g38
sg14
S'MathJax_Main'
p231
sg16
I400
sg17
g18
sg19
g18
sg20
S'/usr/share/fonts/opentype/mathjax/MathJax_Main-Italic.otf'
p232
sg22
g23
sbag7
(g8
g9
NtRp233
(dp234
g12
g18
sg14
S'Accanthis ADF Std No2'
p235
sg16
I700
sg17
g18
sg19
g18
sg20
S'/usr/share/fonts/truetype/adf/AccanthisADFStdNo2-Bold.otf'
p236
sg22
g23
sbag7
(g8
g9
NtRp237
(dp238
g12
g38
sg14
S'GFS Didot'
p239
sg16
I700
sg17
g18
sg19
g18
sg20
S'/usr/share/fonts/truetype/didot/GFSDidotBoldItalic.otf'
p240
sg22
g23
sbag7
(g8
g9
NtRp241
(dp242
g12
g38
sg14
S'TeX Gyre Termes'
p243
sg16
I700
sg17
g18
sg19
g18
sg20
S'/usr/share/texmf/fonts/opentype/public/tex-gyre/texgyretermes-bolditalic.otf'
p244
sg22
g23
sbag7
(g8
g9
NtRp245
(dp246
g12
g18
sg14
S'Latin Modern Mono'
p247
sg16
I400
sg17
g18
sg19
g18
sg20
S'/usr/share/texmf/fonts/opentype/public/lm/lmmono10-regular.otf'
p248
sg22
g23
sbag7
(g8
g9
NtRp249
(dp250
g12
g38
sg14
S'Lato'
p251
sg16
I500
sg17
g18
sg19
g18
sg20
S'/usr/share/fonts/truetype/lato/Lato-MediumItalic.ttf'
p252
sg22
g23
sbag7
(g8
g9
NtRp253
(dp254
g12
g18
sg14
S'GFS Olga'
p255
sg16
I400
sg17
g18
sg19
g18
sg20
S'/usr/share/fonts/truetype/olga/GFSOlga.otf'
p256
sg22
g23
sbag7
(g8
g9
NtRp257
(dp258
g12
g18
sg14
S'TeX Gyre Schola Math'
p259
sg16
I400
sg17
g18
sg19
g18
sg20
S'/usr/share/texmf/fonts/opentype/public/tex-gyre-math/texgyreschola-math.otf'
p260
sg22
g23
sbag7
(g8
g9
NtRp261
(dp262
g12
g18
sg14
S'DejaVu Serif'
p263
sg16
I700
sg17
S'condensed'
p264
sg19
g18
sg20
S'/usr/share/fonts/truetype/dejavu/DejaVuSerifCondensed-Bold.ttf'
p265
sg22
g23
sbag7
(g8
g9
NtRp266
(dp267
g12
g38
sg14
S'EB Garamond'
p268
sg16
I400
sg17
g18
sg19
g18
sg20
S'/usr/share/fonts/opentype/ebgaramond/EBGaramond12-Italic.otf'
p269
sg22
g23
sbag7
(g8
g9
NtRp270
(dp271
g12
g18
sg14
S'STIXSizeFourSym'
p272
sg16
I700
sg17
g18
sg19
g18
sg20
S'/usr/share/fonts/opentype/stix/STIXSizeFourSym-Bold.otf'
p273
sg22
g23
sbag7
(g8
g9
NtRp274
(dp275
g12
g18
sg14
S'Gillius ADF No2 Cd'
p276
sg16
I700
sg17
g18
sg19
g18
sg20
S'/usr/share/fonts/truetype/adf/GilliusADFNo2Cd-Bold.otf'
p277
sg22
g23
sbag7
(g8
g9
NtRp278
(dp279
g12
g18
sg14
S'Lato'
p280
sg16
I500
sg17
g18
sg19
g18
sg20
S'/usr/share/fonts/truetype/lato/Lato-Medium.ttf'
p281
sg22
g23
sbag7
(g8
g9
NtRp282
(dp283
g12
g18
sg14
S'Latin Modern Roman'
p284
sg16
I400
sg17
g18
sg19
g18
sg20
S'/usr/share/texmf/fonts/opentype/public/lm/lmroman12-regular.otf'
p285
sg22
g23
sbag7
(g8
g9
NtRp286
(dp287
g12
g38
sg14
S'Amiri'
p288
sg16
I400
sg17
g18
sg19
g18
sg20
S'/usr/share/fonts/opentype/fonts-hosny-amiri/amiri-slanted.ttf'
p289
sg22
g23
sbag7
(g8
g9
NtRp290
(dp291
g12
g18
sg14
S'GFS Artemisia'
p292
sg16
I700
sg17
g18
sg19
g18
sg20
S'/usr/share/fonts/truetype/artemisia/GFSArtemisiaBold.otf'
p293
sg22
g23
sbag7
(g8
g9
NtRp294
(dp295
g12
g18
sg14
S'Gentium Basic'
p296
sg16
I400
sg17
g18
sg19
g18
sg20
S'/usr/share/fonts/truetype/gentium-basic/GenBasR.ttf'
p297
sg22
g23
sbag7
(g8
g9
NtRp298
(dp299
g12
g18
sg14
S'Droid Arabic Naskh'
p300
sg16
I400
sg17
g18
sg19
g18
sg20
S'/usr/share/fonts/truetype/droid/DroidNaskh-Regular.ttf'
p301
sg22
g23
sbag7
(g8
g9
NtRp302
(dp303
g12
g38
sg14
S'Gentium'
p304
sg16
I400
sg17
g18
sg19
g18
sg20
S'/usr/share/fonts/truetype/gentium/GenI102.ttf'
p305
sg22
g23
sbag7
(g8
g9
NtRp306
(dp307
g12
g18
sg14
S'Comfortaa'
p308
sg16
I200
sg17
g18
sg19
g18
sg20
S'/usr/share/fonts/truetype/comfortaa/Comfortaa-Light.ttf'
p309
sg22
g23
sbag7
(g8
g9
NtRp310
(dp311
g12
g38
sg14
S'Liberation Sans'
p312
sg16
I400
sg17
g18
sg19
g18
sg20
S'/usr/share/fonts/truetype/liberation/LiberationSans-Italic.ttf'
p313
sg22
g23
sbag7
(g8
g9
NtRp314
(dp315
g12
g13
sg14
S'DejaVu Sans Mono'
p316
sg16
I400
sg17
g18
sg19
g18
sg20
S'/usr/share/fonts/truetype/dejavu/DejaVuSansMono-Oblique.ttf'
p317
sg22
g23
sbag7
(g8
g9
NtRp318
(dp319
g12
g18
sg14
S'STIXIntegralsUp'
p320
sg16
I700
sg17
g18
sg19
g18
sg20
S'/usr/share/fonts/opentype/stix/STIXIntegralsUp-Bold.otf'
p321
sg22
g23
sbag7
(g8
g9
NtRp322
(dp323
g12
g18
sg14
S'Latin Modern Roman'
p324
sg16
I700
sg17
g18
sg19
g18
sg20
S'/usr/share/texmf/fonts/opentype/public/lm/lmroman12-bold.otf'
p325
sg22
g23
sbag7
(g8
g9
NtRp326
(dp327
g12
g18
sg14
S'TeX Gyre Cursor'
p328
sg16
I400
sg17
g18
sg19
g18
sg20
S'/usr/share/texmf/fonts/opentype/public/tex-gyre/texgyrecursor-regular.otf'
p329
sg22
g23
sbag7
(g8
g9
NtRp330
(dp331
g12
g18
sg14
S'FontAwesome'
p332
sg16
I400
sg17
g18
sg19
g18
sg20
S'/usr/share/fonts/truetype/font-awesome/fontawesome-webfont.ttf'
p333
sg22
g23
sbag7
(g8
g9
NtRp334
(dp335
g12
g18
sg14
S'Droid Sans Hebrew'
p336
sg16
I700
sg17
g18
sg19
g18
sg20
S'/usr/share/fonts/truetype/droid/DroidSansHebrew-Bold.ttf'
p337
sg22
g23
sbag7
(g8
g9
NtRp338
(dp339
g12
g18
sg14
S'Cabin'
p340
sg16
I500
sg17
g18
sg19
g18
sg20
S'/usr/share/fonts/opentype/cabin/Cabin-Medium.otf'
p341
sg22
g23
sbag7
(g8
g9
NtRp342
(dp343
g12
g18
sg14
S'Droid Arabic Naskh'
p344
sg16
I700
sg17
g18
sg19
g18
sg20
S'/usr/share/fonts/truetype/droid/DroidNaskh-Bold.ttf'
p345
sg22
g23
sbag7
(g8
g9
NtRp346
(dp347
g12
g18
sg14
S'Liberation Serif'
p348
sg16
I700
sg17
g18
sg19
g18
sg20
S'/usr/share/fonts/truetype/ttf-liberation/LiberationSerif-Bold.ttf'
p349
sg22
g23
sbag7
(g8
g9
NtRp350
(dp351
g12
g18
sg14
S'Droid Serif'
p352
sg16
I400
sg17
g18
sg19
g18
sg20
S'/usr/share/fonts/truetype/droid/DroidSerif-Regular.ttf'
p353
sg22
g23
sbag7
(g8
g9
NtRp354
(dp355
g12
g18
sg14
S'Latin Modern Roman'
p356
sg16
I400
sg17
g18
sg19
g18
sg20
S'/usr/share/texmf/fonts/opentype/public/lm/lmroman5-regular.otf'
p357
sg22
g23
sbag7
(g8
g9
NtRp358
(dp359
g12
g18
sg14
S'Latin Modern Roman Slanted'
p360
sg16
I400
sg17
g18
sg19
g18
sg20
S'/usr/share/texmf/fonts/opentype/public/lm/lmromanslant12-regular.otf'
p361
sg22
g23
sbag7
(g8
g9
NtRp362
(dp363
g12
g18
sg14
S'FreeSerif'
p364
sg16
I700
sg17
g18
sg19
g18
sg20
S'/usr/share/fonts/opentype/freefont/FreeSerifBold.otf'
p365
sg22
g23
sbag7
(g8
g9
NtRp366
(dp367
g12
g38
sg14
S'Latin Modern Mono'
p368
sg16
I400
sg17
g18
sg19
g18
sg20
S'/usr/share/texmf/fonts/opentype/public/lm/lmmono10-italic.otf'
p369
sg22
g23
sbag7
(g8
g9
NtRp370
(dp371
g12
g18
sg14
S'FreeSans'
p372
sg16
I400
sg17
g18
sg19
g18
sg20
S'/usr/share/fonts/opentype/freefont/FreeSans.otf'
p373
sg22
g23
sbag7
(g8
g9
NtRp374
(dp375
g12
g18
sg14
S'MathJax_Fraktur'
p376
sg16
I700
sg17
g18
sg19
g18
sg20
S'/usr/share/fonts/opentype/mathjax/MathJax_Fraktur-Bold.otf'
p377
sg22
g23
sbag7
(g8
g9
NtRp378
(dp379
g12
g13
sg14
S'DejaVu Sans Mono'
p380
sg16
I700
sg17
g18
sg19
g18
sg20
S'/usr/share/fonts/truetype/dejavu/DejaVuSansMono-BoldOblique.ttf'
p381
sg22
g23
sbag7
(g8
g9
NtRp382
(dp383
g12
g18
sg14
S'FreeSans'
p384
sg16
I700
sg17
g18
sg19
g18
sg20
S'/usr/share/fonts/truetype/freefont/FreeSansBold.ttf'
p385
sg22
g23
sbag7
(g8
g9
NtRp386
(dp387
g12
g18
sg14
S'TeX Gyre Heros Cn'
p388
sg16
I400
sg17
g18
sg19
g18
sg20
S'/usr/share/texmf/fonts/opentype/public/tex-gyre/texgyreheroscn-regular.otf'
p389
sg22
g23
sbag7
(g8
g9
NtRp390
(dp391
g12
g18
sg14
S'Latin Modern Mono'
p392
sg16
I400
sg17
g18
sg19
g18
sg20
S'/usr/share/texmf/fonts/opentype/public/lm/lmmono8-regular.otf'
p393
sg22
g23
sbag7
(g8
g9
NtRp394
(dp395
g12
g18
sg14
S'Latin Modern Sans'
p396
sg16
I700
sg17
g18
sg19
g18
sg20
S'/usr/share/texmf/fonts/opentype/public/lm/lmsans10-bold.otf'
p397
sg22
g23
sbag7
(g8
g9
NtRp398
(dp399
g12
g18
sg14
S'Droid Arabic Kufi'
p400
sg16
I700
sg17
g18
sg19
g18
sg20
S'/usr/share/fonts/truetype/droid/DroidKufi-Bold.ttf'
p401
sg22
g23
sbag7
(g8
g9
NtRp402
(dp403
g12
g13
sg14
S'Latin Modern Mono Prop'
p404
sg16
I400
sg17
g18
sg19
g18
sg20
S'/usr/share/texmf/fonts/opentype/public/lm/lmmonoprop10-oblique.otf'
p405
sg22
g23
sbag7
(g8
g9
NtRp406
(dp407
g12
g18
sg14
S'STIXSizeOneSym'
p408
sg16
I700
sg17
g18
sg19
g18
sg20
S'/usr/share/fonts/opentype/stix/STIXSizeOneSym-Bold.otf'
p409
sg22
g23
sbag7
(g8
g9
NtRp410
(dp411
g12
g38
sg14
S'Accanthis ADF Std No3'
p412
sg16
I400
sg17
g18
sg19
g18
sg20
S'/usr/share/fonts/truetype/adf/AccanthisADFStdNo3-Italic.otf'
p413
sg22
g23
sbag7
(g8
g9
NtRp414
(dp415
g12
g18
sg14
S'Universalis ADF Cd Std'
p416
sg16
I400
sg17
g18
sg19
g18
sg20
S'/usr/share/fonts/truetype/adf/UniversalisADFCdStd-Regular.otf'
p417
sg22
g23
sbag7
(g8
g9
NtRp418
(dp419
g12
g18
sg14
S'Droid Sans Mono'
p420
sg16
I400
sg17
g18
sg19
g18
sg20
S'/usr/share/fonts/truetype/droid/DroidSansMono.ttf'
p421
sg22
g23
sbag7
(g8
g9
NtRp422
(dp423
g12
g18
sg14
S'FreeSerif'
p424
sg16
I400
sg17
g18
sg19
g18
sg20
S'/usr/share/fonts/opentype/freefont/FreeSerif.otf'
p425
sg22
g23
sbag7
(g8
g9
NtRp426
(dp427
g12
g18
sg14
S'STIXIntegralsSm'
p428
sg16
I700
sg17
g18
sg19
g18
sg20
S'/usr/share/fonts/opentype/stix/STIXIntegralsSm-Bold.otf'
p429
sg22
g23
sbag7
(g8
g9
NtRp430
(dp431
g12
g38
sg14
S'Liberation Mono'
p432
sg16
I700
sg17
g18
sg19
g18
sg20
S'/usr/share/fonts/truetype/liberation/LiberationMono-BoldItalic.ttf'
p433
sg22
g23
sbag7
(g8
g9
NtRp434
(dp435
g12
g18
sg14
S'EB Garamond'
p436
sg16
I400
sg17
g18
sg19
g18
sg20
S'/usr/share/fonts/truetype/ebgaramond/EBGaramond12-Regular.ttf'
p437
sg22
g23
sbag7
(g8
g9
NtRp438
(dp439
g12
g18
sg14
S'IPAGothic'
p440
sg16
I400
sg17
g18
sg19
g18
sg20
S'/usr/share/fonts/opentype/ipafont-gothic/ipag.ttf'
p441
sg22
g23
sbag7
(g8
g9
NtRp442
(dp443
g12
g18
sg14
S'TeX Gyre Bonum'
p444
sg16
I700
sg17
g18
sg19
g18
sg20
S'/usr/share/texmf/fonts/opentype/public/tex-gyre/texgyrebonum-bold.otf'
p445
sg22
g23
sbag7
(g8
g9
NtRp446
(dp447
g12
g18
sg14
S'Cabin'
p448
sg16
I700
sg17
g18
sg19
g18
sg20
S'/usr/share/fonts/opentype/cabin/Cabin-Bold.otf'
p449
sg22
g23
sbag7
(g8
g9
NtRp450
(dp451
g12
g38
sg14
S'Caladea'
p452
sg16
I400
sg17
g18
sg19
g18
sg20
S'/usr/share/fonts/truetype/crosextra/Caladea-Italic.ttf'
p453
sg22
g23
sbag7
(g8
g9
NtRp454
(dp455
g12
g18
sg14
S'Droid Sans Fallback'
p456
sg16
I400
sg17
g18
sg19
g18
sg20
S'/usr/share/fonts/truetype/droid/DroidSansFallbackFull.ttf'
p457
sg22
g23
sbag7
(g8
g9
NtRp458
(dp459
g12
g38
sg14
S'DejaVu Serif'
p460
sg16
I700
sg17
g18
sg19
g18
sg20
S'/usr/share/fonts/truetype/dejavu/DejaVuSerif-BoldItalic.ttf'
p461
sg22
g23
sbag7
(g8
g9
NtRp462
(dp463
g12
g18
sg14
S'Latin Modern Mono Prop Light'
p464
sg16
I700
sg17
g18
sg19
g18
sg20
S'/usr/share/texmf/fonts/opentype/public/lm/lmmonoproplt10-bold.otf'
p465
sg22
g23
sbag7
(g8
g9
NtRp466
(dp467
g12
g18
sg14
S'FreeSans'
p468
sg16
I700
sg17
g18
sg19
g18
sg20
S'/usr/share/fonts/opentype/freefont/FreeSansBold.otf'
p469
sg22
g23
sbag7
(g8
g9
NtRp470
(dp471
g12
g18
sg14
S'DejaVu Serif'
p472
sg16
I400
sg17
g18
sg19
g18
sg20
S'/usr/share/fonts/truetype/dejavu/DejaVuSerif.ttf'
p473
sg22
g23
sbag7
(g8
g9
NtRp474
(dp475
g12
g38
sg14
S'Latin Modern Roman'
p476
sg16
I500
sg17
g18
sg19
g18
sg20
S'/usr/share/texmf/fonts/opentype/public/lm/lmroman12-italic.otf'
p477
sg22
g23
sbag7
(g8
g9
NtRp478
(dp479
g12
g18
sg14
S'TeX Gyre Bonum Math'
p480
sg16
I400
sg17
g18
sg19
g18
sg20
S'/usr/share/texmf/fonts/opentype/public/tex-gyre-math/texgyrebonum-math.otf'
p481
sg22
g23
sbag7
(g8
g9
NtRp482
(dp483
g12
g18
sg14
S'Latin Modern Sans'
p484
sg16
I400
sg17
g18
sg19
g18
sg20
S'/usr/share/texmf/fonts/opentype/public/lm/lmsans12-regular.otf'
p485
sg22
g23
sbag7
(g8
g9
NtRp486
(dp487
g12
g18
sg14
S'DejaVu Sans'
p488
sg16
I700
sg17
g18
sg19
g18
sg20
S'/usr/share/fonts/truetype/dejavu/DejaVuSans-Bold.ttf'
p489
sg22
g23
sbag7
(g8
g9
NtRp490
(dp491
g12
g18
sg14
S'Liberation Serif'
p492
sg16
I400
sg17
g18
sg19
g18
sg20
S'/usr/share/fonts/truetype/ttf-liberation/LiberationSerif-Regular.ttf'
p493
sg22
g23
sbag7
(g8
g9
NtRp494
(dp495
g12
g38
sg14
S'Latin Modern Roman'
p496
sg16
I500
sg17
g18
sg19
g18
sg20
S'/usr/share/texmf/fonts/opentype/public/lm/lmroman7-italic.otf'
p497
sg22
g23
sbag7
(g8
g9
NtRp498
(dp499
g12
g18
sg14
S'Latin Modern Math'
p500
sg16
I400
sg17
g18
sg19
g18
sg20
S'/usr/share/texmf/fonts/opentype/public/lm-math/latinmodernmath-regular.otf'
p501
sg22
g23
sbag7
(g8
g9
NtRp502
(dp503
g12
g38
sg14
S'Latin Modern Roman'
p504
sg16
I500
sg17
g18
sg19
g18
sg20
S'/usr/share/texmf/fonts/opentype/public/lm/lmroman9-italic.otf'
p505
sg22
g23
sbag7
(g8
g9
NtRp506
(dp507
g12
g18
sg14
S'MathJax_WinChrome'
p508
sg16
I400
sg17
g18
sg19
g18
sg20
S'/usr/share/fonts/opentype/mathjax/MathJax_WinChrome-Regular.otf'
p509
sg22
g23
sbag7
(g8
g9
NtRp510
(dp511
g12
g18
sg14
S'MathJax_SansSerif'
p512
sg16
I700
sg17
g18
sg19
g18
sg20
S'/usr/share/fonts/opentype/mathjax/MathJax_SansSerif-Bold.otf'
p513
sg22
g23
sbag7
(g8
g9
NtRp514
(dp515
g12
g18
sg14
S'STIXGeneral'
p516
sg16
I400
sg17
g18
sg19
g18
sg20
S'/usr/share/fonts/opentype/stix/STIXGeneral-Regular.otf'
p517
sg22
g23
sbag7
(g8
g9
NtRp518
(dp519
g12
g18
sg14
S'GFS Solomos'
p520
sg16
I400
sg17
g18
sg19
g18
sg20
S'/usr/share/fonts/truetype/solomos/GFSSolomos.otf'
p521
sg22
g23
sbag7
(g8
g9
NtRp522
(dp523
g12
g18
sg14
S'STIX'
p524
sg16
I400
sg17
g18
sg19
g18
sg20
S'/usr/share/fonts/opentype/stix-word/STIX-Regular.otf'
p525
sg22
g23
sbag7
(g8
g9
NtRp526
(dp527
g12
g38
sg14
S'Lobster Two'
p528
sg16
I700
sg17
g18
sg19
g18
sg20
S'/usr/share/fonts/opentype/lobstertwo/LobsterTwo-BoldItalic.otf'
p529
sg22
g23
sbag7
(g8
g9
NtRp530
(dp531
g12
g18
sg14
S'GFS Baskerville'
p532
sg16
I400
sg17
g18
sg19
g18
sg20
S'/usr/share/fonts/truetype/baskerville/GFSBaskerville.otf'
p533
sg22
g23
sbag7
(g8
g9
NtRp534
(dp535
g12
g18
sg14
S'EB Garamond Initials Fill1'
p536
sg16
I400
sg17
g18
sg19
g18
sg20
S'/usr/share/fonts/opentype/ebgaramond/EBGaramond-InitialsF1.otf'
p537
sg22
g23
sbag7
(g8
g9
NtRp538
(dp539
g12
g18
sg14
S'STIXIntegralsD'
p540
sg16
I400
sg17
g18
sg19
g18
sg20
S'/usr/share/fonts/opentype/stix/STIXIntegralsD-Regular.otf'
p541
sg22
g23
sbag7
(g8
g9
NtRp542
(dp543
g12
g18
sg14
S'Junicode'
p544
sg16
I700
sg17
g18
sg19
g18
sg20
S'/usr/share/fonts/truetype/junicode/Junicode-Bold.ttf'
p545
sg22
g23
sbag7
(g8
g9
NtRp546
(dp547
g12
g18
sg14
S'TeX Gyre Pagella'
p548
sg16
I400
sg17
g18
sg19
g18
sg20
S'/usr/share/texmf/fonts/opentype/public/tex-gyre/texgyrepagella-regular.otf'
p549
sg22
g23
sbag7
(g8
g9
NtRp550
(dp551
g12
g18
sg14
S'Latin Modern Roman'
p552
sg16
I700
sg17
g18
sg19
g18
sg20
S'/usr/share/texmf/fonts/opentype/public/lm/lmroman8-bold.otf'
p553
sg22
g23
sbag7
(g8
g9
NtRp554
(dp555
g12
g38
sg14
S'GFS Didot'
p556
sg16
I400
sg17
g18
sg19
g18
sg20
S'/usr/share/fonts/truetype/didot/GFSDidotItalic.otf'
p557
sg22
g23
sbag7
(g8
g9
NtRp558
(dp559
g12
g38
sg14
S'TeX Gyre Pagella'
p560
sg16
I400
sg17
g18
sg19
g18
sg20
S'/usr/share/texmf/fonts/opentype/public/tex-gyre/texgyrepagella-italic.otf'
p561
sg22
g23
sbag7
(g8
g9
NtRp562
(dp563
g12
g18
sg14
S'Amiri'
p564
sg16
I700
sg17
g18
sg19
g18
sg20
S'/usr/share/fonts/opentype/fonts-hosny-amiri/amiri-bold.ttf'
p565
sg22
g23
sbag7
(g8
g9
NtRp566
(dp567
g12
g18
sg14
S'EB Garamond Initials Fill1'
p568
sg16
I400
sg17
g18
sg19
g18
sg20
S'/usr/share/fonts/truetype/ebgaramond/EBGaramond-InitialsF1.ttf'
p569
sg22
g23
sbag7
(g8
g9
NtRp570
(dp571
g12
g18
sg14
S'STIXSizeOneSym'
p572
sg16
I400
sg17
g18
sg19
g18
sg20
S'/usr/share/fonts/opentype/stix/STIXSizeOneSym-Regular.otf'
p573
sg22
g23
sbag7
(g8
g9
NtRp574
(dp575
g12
g18
sg14
S'STIX Math'
p576
sg16
I400
sg17
g18
sg19
g18
sg20
S'/usr/share/fonts/opentype/stix-word/STIXMath-Regular.otf'
p577
sg22
g23
sbag7
(g8
g9
NtRp578
(dp579
g12
g18
sg14
S'stmary10'
p580
sg16
I400
sg17
g18
sg19
g18
sg20
S'/usr/share/fonts/truetype/lyx/stmary10.ttf'
p581
sg22
g23
sbag7
(g8
g9
NtRp582
(dp583
g12
g18
sg14
S'Gillius ADF No2 Cd'
p584
sg16
I400
sg17
g18
sg19
g18
sg20
S'/usr/share/fonts/truetype/adf/GilliusADFNo2Cd-Regular.otf'
p585
sg22
g23
sbag7
(g8
g9
NtRp586
(dp587
g12
g18
sg14
S'OCRA'
p588
sg16
I400
sg17
g18
sg19
g18
sg20
S'/usr/share/fonts/truetype/ocr-a/OCRA.ttf'
p589
sg22
g23
sbag7
(g8
g9
NtRp590
(dp591
g12
g38
sg14
S'STIX'
p592
sg16
I400
sg17
g18
sg19
g18
sg20
S'/usr/share/fonts/opentype/stix-word/STIX-Italic.otf'
p593
sg22
g23
sbag7
(g8
g9
NtRp594
(dp595
g12
g18
sg14
S'Latin Modern Sans Demi Cond'
p596
sg16
I600
sg17
g264
sg19
g18
sg20
S'/usr/share/texmf/fonts/opentype/public/lm/lmsansdemicond10-regular.otf'
p597
sg22
g23
sbag7
(g8
g9
NtRp598
(dp599
g12
g18
sg14
S'DejaVu Sans'
p600
sg16
I700
sg17
g264
sg19
g18
sg20
S'/usr/share/fonts/truetype/dejavu/DejaVuSansCondensed-Bold.ttf'
p601
sg22
g23
sbag7
(g8
g9
NtRp602
(dp603
g12
g38
sg14
S'GFS Neohellenic'
p604
sg16
I700
sg17
g18
sg19
g18
sg20
S'/usr/share/fonts/truetype/neohellenic/GFSNeohellenicBoldIt.otf'
p605
sg22
g23
sbag7
(g8
g9
NtRp606
(dp607
g12
g38
sg14
S'Gillius ADF'
p608
sg16
I400
sg17
g18
sg19
g18
sg20
S'/usr/share/fonts/truetype/adf/GilliusADF-Italic.otf'
p609
sg22
g23
sbag7
(g8
g9
NtRp610
(dp611
g12
g18
sg14
S'TeX Gyre Heros Cn'
p612
sg16
I700
sg17
g18
sg19
g18
sg20
S'/usr/share/texmf/fonts/opentype/public/tex-gyre/texgyreheroscn-bold.otf'
p613
sg22
g23
sbag7
(g8
g9
NtRp614
(dp615
g12
g13
sg14
S'Latin Modern Mono Prop Light'
p616
sg16
I700
sg17
g18
sg19
g18
sg20
S'/usr/share/texmf/fonts/opentype/public/lm/lmmonoproplt10-boldoblique.otf'
p617
sg22
g23
sbag7
(g8
g9
NtRp618
(dp619
g12
g18
sg14
S'Universalis ADF Cd Std'
p620
sg16
I700
sg17
g18
sg19
g18
sg20
S'/usr/share/fonts/truetype/adf/UniversalisADFCdStd-Bold.otf'
p621
sg22
g23
sbag7
(g8
g9
NtRp622
(dp623
g12
g18
sg14
S'Amiri'
p624
sg16
I400
sg17
g18
sg19
g18
sg20
S'/usr/share/fonts/opentype/fonts-hosny-amiri/amiri-regular.ttf'
p625
sg22
g23
sbag7
(g8
g9
NtRp626
(dp627
g12
g13
sg14
S'FreeSans'
p628
sg16
I400
sg17
g18
sg19
g18
sg20
S'/usr/share/fonts/opentype/freefont/FreeSansOblique.otf'
p629
sg22
g23
sbag7
(g8
g9
NtRp630
(dp631
g12
g38
sg14
S'Linux Libertine O'
p632
sg16
I700
sg17
g18
sg19
g18
sg20
S'/usr/share/fonts/opentype/linux-libertine/LinLibertine_RZI.otf'
p633
sg22
g23
sbag7
(g8
g9
NtRp634
(dp635
g12
g18
sg14
S'Liberation Sans Narrow'
p636
sg16
I700
sg17
g264
sg19
g18
sg20
S'/usr/share/fonts/truetype/liberation/LiberationSansNarrow-Bold.ttf'
p637
sg22
g23
sbag7
(g8
g9
NtRp638
(dp639
g12
g18
sg14
S'Droid Sans Armenian'
p640
sg16
I400
sg17
g18
sg19
g18
sg20
S'/usr/share/fonts/truetype/droid/DroidSansArmenian.ttf'
p641
sg22
g23
sbag7
(g8
g9
NtRp642
(dp643
g12
g18
sg14
S'Linux Libertine O'
p644
sg16
I400
sg17
g18
sg19
g18
sg20
S'/usr/share/fonts/opentype/linux-libertine/LinLibertine_R.otf'
p645
sg22
g23
sbag7
(g8
g9
NtRp646
(dp647
g12
g18
sg14
S'DejaVu Sans Mono'
p648
sg16
I700
sg17
g18
sg19
g18
sg20
S'/usr/share/fonts/truetype/dejavu/DejaVuSansMono-Bold.ttf'
p649
sg22
g23
sbag7
(g8
g9
NtRp650
(dp651
g12
g18
sg14
S'Lato'
p652
sg16
I400
sg17
g18
sg19
g18
sg20
S'/usr/share/fonts/truetype/lato/Lato-Regular.ttf'
p653
sg22
g23
sbag7
(g8
g9
NtRp654
(dp655
g12
g13
sg14
S'DejaVu Sans'
p656
sg16
I400
sg17
g264
sg19
g18
sg20
S'/usr/share/fonts/truetype/dejavu/DejaVuSansCondensed-Oblique.ttf'
p657
sg22
g23
sbag7
(g8
g9
NtRp658
(dp659
g12
g18
sg14
S'EB Garamond Initials'
p660
sg16
I400
sg17
g18
sg19
g18
sg20
S'/usr/share/fonts/opentype/ebgaramond/EBGaramond-Initials.otf'
p661
sg22
g23
sbag7
(g8
g9
NtRp662
(dp663
g12
g13
sg14
S'Universalis ADF Std'
p664
sg16
I400
sg17
g18
sg19
g18
sg20
S'/usr/share/fonts/truetype/adf/UniversalisADFStd-Oblique.otf'
p665
sg22
g23
sbag7
(g8
g9
NtRp666
(dp667
g12
g18
sg14
S'MathJax_Size4'
p668
sg16
I400
sg17
g18
sg19
g18
sg20
S'/usr/share/fonts/opentype/mathjax/MathJax_Size4-Regular.otf'
p669
sg22
g23
sbag7
(g8
g9
NtRp670
(dp671
g12
g38
sg14
S'TeX Gyre Bonum'
p672
sg16
I700
sg17
g18
sg19
g18
sg20
S'/usr/share/texmf/fonts/opentype/public/tex-gyre/texgyrebonum-bolditalic.otf'
p673
sg22
g23
sbag7
(g8
g9
NtRp674
(dp675
g12
g38
sg14
S'Lato'
p676
sg16
I800
sg17
g18
sg19
g18
sg20
S'/usr/share/fonts/truetype/lato/Lato-HeavyItalic.ttf'
p677
sg22
g23
sbag7
(g8
g9
NtRp678
(dp679
g12
g38
sg14
S'Liberation Mono'
p680
sg16
I400
sg17
g18
sg19
g18
sg20
S'/usr/share/fonts/truetype/liberation/LiberationMono-Italic.ttf'
p681
sg22
g23
sbag7
(g8
g9
NtRp682
(dp683
g12
g18
sg14
S'Droid Naskh Shift Alt'
p684
sg16
I400
sg17
g18
sg19
g18
sg20
S'/usr/share/fonts/truetype/droid/DroidNaskhUI-Regular.ttf'
p685
sg22
g23
sbag7
(g8
g9
NtRp686
(dp687
g12
g38
sg14
S'Liberation Serif'
p688
sg16
I700
sg17
g18
sg19
g18
sg20
S'/usr/share/fonts/truetype/liberation/LiberationSerif-BoldItalic.ttf'
p689
sg22
g23
sbag7
(g8
g9
NtRp690
(dp691
g12
g38
sg14
S'TeX Gyre Pagella'
p692
sg16
I700
sg17
g18
sg19
g18
sg20
S'/usr/share/texmf/fonts/opentype/public/tex-gyre/texgyrepagella-bolditalic.otf'
p693
sg22
g23
sbag7
(g8
g9
NtRp694
(dp695
g12
g18
sg14
S'Latin Modern Roman Slanted'
p696
sg16
I400
sg17
g18
sg19
g18
sg20
S'/usr/share/texmf/fonts/opentype/public/lm/lmromanslant8-regular.otf'
p697
sg22
g23
sbag7
(g8
g9
NtRp698
(dp699
g12
g38
sg14
S'STIXGeneral'
p700
sg16
I700
sg17
g18
sg19
g18
sg20
S'/usr/share/fonts/opentype/stix/STIXGeneral-BoldItalic.otf'
p701
sg22
g23
sbag7
(g8
g9
NtRp702
(dp703
g12
g18
sg14
S'Universalis ADF Std'
p704
sg16
I700
sg17
g18
sg19
g18
sg20
S'/usr/share/fonts/truetype/adf/UniversalisADFStd-Bold.otf'
p705
sg22
g23
sbag7
(g8
g9
NtRp706
(dp707
g12
g38
sg14
S'Lato'
p708
sg16
I700
sg17
g18
sg19
g18
sg20
S'/usr/share/fonts/truetype/lato/Lato-BoldItalic.ttf'
p709
sg22
g23
sbag7
(g8
g9
NtRp710
(dp711
g12
g13
sg14
S'Latin Modern Mono Light'
p712
sg16
I700
sg17
g18
sg19
g18
sg20
S'/usr/share/texmf/fonts/opentype/public/lm/lmmonolt10-boldoblique.otf'
p713
sg22
g23
sbag7
(g8
g9
NtRp714
(dp715
g12
g18
sg14
S'DejaVu Serif'
p716
sg16
I400
sg17
g264
sg19
g18
sg20
S'/usr/share/fonts/truetype/dejavu/DejaVuSerifCondensed.ttf'
p717
sg22
g23
sbag7
(g8
g9
NtRp718
(dp719
g12
g18
sg14
S'Linux Biolinum O'
p720
sg16
I700
sg17
g18
sg19
g18
sg20
S'/usr/share/fonts/opentype/linux-libertine/LinBiolinum_RB.otf'
p721
sg22
g23
sbag7
(g8
g9
NtRp722
(dp723
g12
g38
sg14
S'Liberation Serif'
p724
sg16
I400
sg17
g18
sg19
g18
sg20
S'/usr/share/fonts/truetype/ttf-liberation/LiberationSerif-Italic.ttf'
p725
sg22
g23
sbag7
(g8
g9
NtRp726
(dp727
g12
g18
sg14
S'Latin Modern Roman'
p728
sg16
I700
sg17
g18
sg19
g18
sg20
S'/usr/share/texmf/fonts/opentype/public/lm/lmroman6-bold.otf'
p729
sg22
g23
sbag7
(g8
g9
NtRp730
(dp731
g12
g38
sg14
S'TeX Gyre Termes'
p732
sg16
I400
sg17
g18
sg19
g18
sg20
S'/usr/share/texmf/fonts/opentype/public/tex-gyre/texgyretermes-italic.otf'
p733
sg22
g23
sbag7
(g8
g9
NtRp734
(dp735
g12
g18
sg14
S'EB Garamond'
p736
sg16
I400
sg17
g18
sg19
g18
sg20
S'/usr/share/fonts/truetype/ebgaramond/EBGaramond08-Regular.ttf'
p737
sg22
g23
sbag7
(g8
g9
NtRp738
(dp739
g12
g13
sg14
S'FreeMono'
p740
sg16
I700
sg17
g18
sg19
g18
sg20
S'/usr/share/fonts/opentype/freefont/FreeMonoBoldOblique.otf'
p741
sg22
g23
sbag7
(g8
g9
NtRp742
(dp743
g12
g18
sg14
S'Latin Modern Mono Prop'
p744
sg16
I400
sg17
g18
sg19
g18
sg20
S'/usr/share/texmf/fonts/opentype/public/lm/lmmonoprop10-regular.otf'
p745
sg22
g23
sbag7
(g8
g9
NtRp746
(dp747
g12
g38
sg14
S'TeX Gyre Heros'
p748
sg16
I400
sg17
g18
sg19
g18
sg20
S'/usr/share/texmf/fonts/opentype/public/tex-gyre/texgyreheros-italic.otf'
p749
sg22
g23
sbag7
(g8
g9
NtRp750
(dp751
g12
g38
sg14
S'TeX Gyre Heros Cn'
p752
sg16
I700
sg17
g18
sg19
g18
sg20
S'/usr/share/texmf/fonts/opentype/public/tex-gyre/texgyreheroscn-bolditalic.otf'
p753
sg22
g23
sbag7
(g8
g9
NtRp754
(dp755
g12
g38
sg14
S'TeX Gyre Schola'
p756
sg16
I700
sg17
g18
sg19
g18
sg20
S'/usr/share/texmf/fonts/opentype/public/tex-gyre/texgyreschola-bolditalic.otf'
p757
sg22
g23
sbag7
(g8
g9
NtRp758
(dp759
g12
g18
sg14
S'Latin Modern Sans Quotation'
p760
sg16
I700
sg17
g18
sg19
g18
sg20
S'/usr/share/texmf/fonts/opentype/public/lm/lmsansquot8-bold.otf'
p761
sg22
g23
sbag7
(g8
g9
NtRp762
(dp763
g12
g18
sg14
S'Gillius ADF'
p764
sg16
I700
sg17
g18
sg19
g18
sg20
S'/usr/share/fonts/truetype/adf/GilliusADF-Bold.otf'
p765
sg22
g23
sbag7
(g8
g9
NtRp766
(dp767
g12
g18
sg14
S'Latin Modern Roman Slanted'
p768
sg16
I400
sg17
g18
sg19
g18
sg20
S'/usr/share/texmf/fonts/opentype/public/lm/lmromanslant9-regular.otf'
p769
sg22
g23
sbag7
(g8
g9
NtRp770
(dp771
g12
g18
sg14
S'Latin Modern Mono Slanted'
p772
sg16
I400
sg17
g18
sg19
g18
sg20
S'/usr/share/texmf/fonts/opentype/public/lm/lmmonoslant10-regular.otf'
p773
sg22
g23
sbag7
(g8
g9
NtRp774
(dp775
g12
g13
sg14
S'Latin Modern Sans Quotation'
p776
sg16
I700
sg17
g18
sg19
g18
sg20
S'/usr/share/texmf/fonts/opentype/public/lm/lmsansquot8-boldoblique.otf'
p777
sg22
g23
sbag7
(g8
g9
NtRp778
(dp779
g12
g38
sg14
S'Gillius ADF No2 Cd'
p780
sg16
I400
sg17
g18
sg19
g18
sg20
S'/usr/share/fonts/truetype/adf/GilliusADFNo2Cd-Italic.otf'
p781
sg22
g23
sbag7
(g8
g9
NtRp782
(dp783
g12
g18
sg14
S'FreeMono'
p784
sg16
I700
sg17
g18
sg19
g18
sg20
S'/usr/share/fonts/truetype/freefont/FreeMonoBold.ttf'
p785
sg22
g23
sbag7
(g8
g9
NtRp786
(dp787
g12
g18
sg14
S'Accanthis ADF Std'
p788
sg16
I400
sg17
g18
sg19
g18
sg20
S'/usr/share/fonts/truetype/adf/AccanthisADFStd-Regular.otf'
p789
sg22
g23
sbag7
(g8
g9
NtRp790
(dp791
g12
g18
sg14
S'Lato'
p792
sg16
I400
sg17
g18
sg19
g18
sg20
S'/usr/share/fonts/truetype/lato/Lato-Thin.ttf'
p793
sg22
g23
sbag7
(g8
g9
NtRp794
(dp795
g12
g38
sg14
S'Droid Serif'
p796
sg16
I700
sg17
g18
sg19
g18
sg20
S'/usr/share/fonts/truetype/droid/DroidSerif-BoldItalic.ttf'
p797
sg22
g23
sbag7
(g8
g9
NtRp798
(dp799
g12
g18
sg14
S'TeX Gyre Heros'
p800
sg16
I700
sg17
g18
sg19
g18
sg20
S'/usr/share/texmf/fonts/opentype/public/tex-gyre/texgyreheros-bold.otf'
p801
sg22
g23
sbag7
(g8
g9
NtRp802
(dp803
g12
g18
sg14
S'wasy10'
p804
sg16
I400
sg17
g18
sg19
g18
sg20
S'/usr/share/fonts/truetype/lyx/wasy10.ttf'
p805
sg22
g23
sbag7
(g8
g9
NtRp806
(dp807
g12
g18
sg14
S'GFS Porson'
p808
sg16
I400
sg17
g18
sg19
g18
sg20
S'/usr/share/fonts/truetype/porson/GFSPorson.otf'
p809
sg22
g23
sbag7
(g8
g9
NtRp810
(dp811
g12
g18
sg14
S'GFS Neohellenic'
p812
sg16
I700
sg17
g18
sg19
g18
sg20
S'/usr/share/fonts/truetype/neohellenic/GFSNeohellenicBold.otf'
p813
sg22
g23
sbag7
(g8
g9
NtRp814
(dp815
g12
g18
sg14
S'Comfortaa'
p816
sg16
I400
sg17
g18
sg19
g18
sg20
S'/usr/share/fonts/truetype/comfortaa/Comfortaa-Regular.ttf'
p817
sg22
g23
sbag7
(g8
g9
NtRp818
(dp819
g12
g18
sg14
S'DejaVu Sans'
p820
sg16
I400
sg17
g264
sg19
g18
sg20
S'/usr/share/fonts/truetype/dejavu/DejaVuSansCondensed.ttf'
p821
sg22
g23
sbag7
(g8
g9
NtRp822
(dp823
g12
g38
sg14
S'STIXNonUnicode'
p824
sg16
I400
sg17
g18
sg19
g18
sg20
S'/usr/share/fonts/opentype/stix/STIXNonUnicode-Italic.otf'
p825
sg22
g23
sbag7
(g8
g9
NtRp826
(dp827
g12
g18
sg14
S'Comfortaa'
p828
sg16
I700
sg17
g18
sg19
g18
sg20
S'/usr/share/fonts/truetype/comfortaa/Comfortaa-Bold.ttf'
p829
sg22
g23
sbag7
(g8
g9
NtRp830
(dp831
g12
g13
sg14
S'DejaVu Sans'
p832
sg16
I700
sg17
g264
sg19
g18
sg20
S'/usr/share/fonts/truetype/dejavu/DejaVuSansCondensed-BoldOblique.ttf'
p833
sg22
g23
sbag7
(g8
g9
NtRp834
(dp835
g12
g38
sg14
S'GentiumAlt'
p836
sg16
I400
sg17
g18
sg19
g18
sg20
S'/usr/share/fonts/truetype/gentium/GenAI102.ttf'
p837
sg22
g23
sbag7
(g8
g9
NtRp838
(dp839
g12
g18
sg14
S'Latin Modern Roman'
p840
sg16
I400
sg17
g18
sg19
g18
sg20
S'/usr/share/texmf/fonts/opentype/public/lm/lmroman8-regular.otf'
p841
sg22
g23
sbag7
(g8
g9
NtRp842
(dp843
g12
g38
sg14
S'EB Garamond'
p844
sg16
I400
sg17
g18
sg19
g18
sg20
S'/usr/share/fonts/opentype/ebgaramond/EBGaramond08-Italic.otf'
p845
sg22
g23
sbag7
(g8
g9
NtRp846
(dp847
g12
g18
sg14
S'Droid Sans Arabic'
p848
sg16
I400
sg17
g18
sg19
g18
sg20
S'/usr/share/fonts/truetype/droid/DroidSansArabic.ttf'
p849
sg22
g23
sbag7
(g8
g9
NtRp850
(dp851
g12
g13
sg14
S'FreeSans'
p852
sg16
I700
sg17
g18
sg19
g18
sg20
S'/usr/share/fonts/truetype/freefont/FreeSansBoldOblique.ttf'
p853
sg22
g23
sbag7
(g8
g9
NtRp854
(dp855
g12
g13
sg14
S'Latin Modern Sans'
p856
sg16
I400
sg17
g18
sg19
g18
sg20
S'/usr/share/texmf/fonts/opentype/public/lm/lmsans12-oblique.otf'
p857
sg22
g23
sbag7
(g8
g9
NtRp858
(dp859
g12
g38
sg14
S'Lato'
p860
sg16
I400
sg17
g18
sg19
g18
sg20
S'/usr/share/fonts/truetype/lato/Lato-HairlineItalic.ttf'
p861
sg22
g23
sbag7
(g8
g9
NtRp862
(dp863
g12
g18
sg14
S'STIXNonUnicode'
p864
sg16
I400
sg17
g18
sg19
g18
sg20
S'/usr/share/fonts/opentype/stix/STIXNonUnicode-Regular.otf'
p865
sg22
g23
sbag7
(g8
g9
NtRp866
(dp867
g12
g18
sg14
S'Lato'
p868
sg16
I700
sg17
g18
sg19
g18
sg20
S'/usr/share/fonts/truetype/lato/Lato-Bold.ttf'
p869
sg22
g23
sbag7
(g8
g9
NtRp870
(dp871
g12
g18
sg14
S'Cabin'
p872
sg16
I400
sg17
g18
sg19
g18
sg20
S'/usr/share/fonts/opentype/cabin/Cabin-Regular.otf'
p873
sg22
g23
sbag7
(g8
g9
NtRp874
(dp875
g12
g18
sg14
S'FreeSans'
p876
sg16
I400
sg17
g18
sg19
g18
sg20
S'/usr/share/fonts/truetype/freefont/FreeSans.ttf'
p877
sg22
g23
sbag7
(g8
g9
NtRp878
(dp879
g12
g18
sg14
S'DejaVu Serif'
p880
sg16
I700
sg17
g18
sg19
g18
sg20
S'/usr/share/fonts/truetype/dejavu/DejaVuSerif-Bold.ttf'
p881
sg22
g23
sbag7
(g8
g9
NtRp882
(dp883
g12
g38
sg14
S'OCRAItalic'
p884
sg16
I400
sg17
g18
sg19
g18
sg20
S'/usr/share/fonts/truetype/ocr-a/OCRAItalic.ttf'
p885
sg22
g23
sbag7
(g8
g9
NtRp886
(dp887
g12
g38
sg14
S'TeX Gyre Adventor'
p888
sg16
I700
sg17
g18
sg19
g18
sg20
S'/usr/share/texmf/fonts/opentype/public/tex-gyre/texgyreadventor-bolditalic.otf'
p889
sg22
g23
sbag7
(g8
g9
NtRp890
(dp891
g12
g38
sg14
S'Accanthis ADF Std No2'
p892
sg16
I700
sg17
g18
sg19
g18
sg20
S'/usr/share/fonts/truetype/adf/AccanthisADFStdNo2-BoldItalic.otf'
p893
sg22
g23
sbag7
(g8
g9
NtRp894
(dp895
g12
g38
sg14
S'TeX Gyre Schola'
p896
sg16
I400
sg17
g18
sg19
g18
sg20
S'/usr/share/texmf/fonts/opentype/public/tex-gyre/texgyreschola-italic.otf'
p897
sg22
g23
sbag7
(g8
g9
NtRp898
(dp899
g12
g38
sg14
S'GFS Didot'
p900
sg16
I700
sg17
g18
sg19
g18
sg20
S'/usr/share/fonts/truetype/artemisia/GFSArtemisiaBoldIt.otf'
p901
sg22
g23
sbag7
(g8
g9
NtRp902
(dp903
g12
g18
sg14
S'STIX'
p904
sg16
I700
sg17
g18
sg19
g18
sg20
S'/usr/share/fonts/opentype/stix-word/STIX-Bold.otf'
p905
sg22
g23
sbag7
(g8
g9
NtRp906
(dp907
g12
g18
sg14
S'TeX Gyre Heros'
p908
sg16
I400
sg17
g18
sg19
g18
sg20
S'/usr/share/texmf/fonts/opentype/public/tex-gyre/texgyreheros-regular.otf'
p909
sg22
g23
sbag7
(g8
g9
NtRp910
(dp911
g12
g38
sg14
S'Gentium Basic'
p912
sg16
I700
sg17
g18
sg19
g18
sg20
S'/usr/share/fonts/truetype/gentium-basic/GenBasBI.ttf'
p913
sg22
g23
sbag7
(g8
g9
NtRp914
(dp915
g12
g18
sg14
S'DejaVu Sans'
p916
sg16
I400
sg17
g18
sg19
g18
sg20
S'/usr/share/fonts/truetype/dejavu/DejaVuSans.ttf'
p917
sg22
g23
sbag7
(g8
g9
NtRp918
(dp919
g12
g18
sg14
S'OCRACondensed'
p920
sg16
I400
sg17
g264
sg19
g18
sg20
S'/usr/share/fonts/truetype/ocr-a/OCRACondensed.ttf'
p921
sg22
g23
sbag7
(g8
g9
NtRp922
(dp923
g12
g18
sg14
S'Linux Biolinum Keyboard O'
p924
sg16
I400
sg17
g18
sg19
g18
sg20
S'/usr/share/fonts/opentype/linux-libertine/LinBiolinum_K.otf'
p925
sg22
g23
sbag7
(g8
g9
NtRp926
(dp927
g12
g18
sg14
S'IPAMincho'
p928
sg16
I400
sg17
g18
sg19
g18
sg20
S'/usr/share/fonts/opentype/ipafont-mincho/ipam.ttf'
p929
sg22
g23
sbag7
(g8
g9
NtRp930
(dp931
g12
g13
sg14
S'FreeMono'
p932
sg16
I400
sg17
g18
sg19
g18
sg20
S'/usr/share/fonts/truetype/freefont/FreeMonoOblique.ttf'
p933
sg22
g23
sbag7
(g8
g9
NtRp934
(dp935
g12
g18
sg14
S'MathJax_Size1'
p936
sg16
I400
sg17
g18
sg19
g18
sg20
S'/usr/share/fonts/opentype/mathjax/MathJax_Size1-Regular.otf'
p937
sg22
g23
sbag7
(g8
g9
NtRp938
(dp939
g12
g38
sg14
S'STIXNonUnicode'
p940
sg16
I700
sg17
g18
sg19
g18
sg20
S'/usr/share/fonts/opentype/stix/STIXNonUnicode-BoldItalic.otf'
p941
sg22
g23
sbag7
(g8
g9
NtRp942
(dp943
g12
g18
sg14
S'Latin Modern Roman Slanted'
p944
sg16
I700
sg17
g18
sg19
g18
sg20
S'/usr/share/texmf/fonts/opentype/public/lm/lmromanslant10-bold.otf'
p945
sg22
g23
sbag7
(g8
g9
NtRp946
(dp947
g12
g18
sg14
S'Gillius ADF'
p948
sg16
I400
sg17
g18
sg19
g18
sg20
S'/usr/share/fonts/truetype/adf/GilliusADF-Regular.otf'
p949
sg22
g23
sbag7
(g8
g9
NtRp950
(dp951
g12
g18
sg14
S'Latin Modern Sans'
p952
sg16
I400
sg17
g18
sg19
g18
sg20
S'/usr/share/texmf/fonts/opentype/public/lm/lmsans9-regular.otf'
p953
sg22
g23
sbag7
(g8
g9
NtRp954
(dp955
g12
g38
sg14
S'Lato'
p956
sg16
I200
sg17
g18
sg19
g18
sg20
S'/usr/share/fonts/truetype/lato/Lato-LightItalic.ttf'
p957
sg22
g23
sbag7
(g8
g9
NtRp958
(dp959
g12
g18
sg14
S'STIXVariants'
p960
sg16
I700
sg17
g18
sg19
g18
sg20
S'/usr/share/fonts/opentype/stix/STIXVariants-Bold.otf'
p961
sg22
g23
sbag7
(g8
g9
NtRp962
(dp963
g12
g13
sg14
S'Latin Modern Sans Quotation'
p964
sg16
I700
sg17
g18
sg19
g18
sg20
S'/usr/share/texmf/fonts/opentype/public/lm/lmsansquot8-oblique.otf'
p965
sg22
g23
sbag7
(g8
g9
NtRp966
(dp967
g12
g38
sg14
S'Lato'
p968
sg16
I400
sg17
g18
sg19
g18
sg20
S'/usr/share/fonts/truetype/lato/Lato-ThinItalic.ttf'
p969
sg22
g23
sbag7
(g8
g9
NtRp970
(dp971
g12
g38
sg14
S'Latin Modern Roman'
p972
sg16
I700
sg17
g18
sg19
g18
sg20
S'/usr/share/texmf/fonts/opentype/public/lm/lmroman10-bolditalic.otf'
p973
sg22
g23
sbag7
(g8
g9
NtRp974
(dp975
g12
g18
sg14
S'STIXIntegralsD'
p976
sg16
I700
sg17
g18
sg19
g18
sg20
S'/usr/share/fonts/opentype/stix/STIXIntegralsD-Bold.otf'
p977
sg22
g23
sbag7
(g8
g9
NtRp978
(dp979
g12
g18
sg14
S'TeX Gyre Pagella'
p980
sg16
I700
sg17
g18
sg19
g18
sg20
S'/usr/share/texmf/fonts/opentype/public/tex-gyre/texgyrepagella-bold.otf'
p981
sg22
g23
sbag7
(g8
g9
NtRp982
(dp983
g12
g18
sg14
S'Latin Modern Mono Prop Light'
p984
sg16
I400
sg17
g18
sg19
g18
sg20
S'/usr/share/texmf/fonts/opentype/public/lm/lmmonoproplt10-regular.otf'
p985
sg22
g23
sbag7
(g8
g9
NtRp986
(dp987
g12
g18
sg14
S'GFS BodoniClassic'
p988
sg16
I400
sg17
g18
sg19
g18
sg20
S'/usr/share/fonts/truetype/bodoni-classic/GFSBodoniClassic.otf'
p989
sg22
g23
sbag7
(g8
g9
NtRp990
(dp991
g12
g38
sg14
S'Gillius ADF Cd'
p992
sg16
I400
sg17
g18
sg19
g18
sg20
S'/usr/share/fonts/truetype/adf/GilliusADFCd-Italic.otf'
p993
sg22
g23
sbag7
(g8
g9
NtRp994
(dp995
g12
g18
sg14
S'FreeMono'
p996
sg16
I400
sg17
g18
sg19
g18
sg20
S'/usr/share/fonts/truetype/freefont/FreeMono.ttf'
p997
sg22
g23
sbag7
(g8
g9
NtRp998
(dp999
g12
g18
sg14
S'Latin Modern Mono'
p1000
sg16
I400
sg17
g18
sg19
g18
sg20
S'/usr/share/texmf/fonts/opentype/public/lm/lmmono9-regular.otf'
p1001
sg22
g23
sbag7
(g8
g9
NtRp1002
(dp1003
g12
g38
sg14
S'Gillius ADF No2 Cd'
p1004
sg16
I700
sg17
g18
sg19
g18
sg20
S'/usr/share/fonts/truetype/adf/GilliusADFNo2Cd-BoldItalic.otf'
p1005
sg22
g23
sbag7
(g8
g9
NtRp1006
(dp1007
g12
g18
sg14
S'STIXIntegralsUpSm'
p1008
sg16
I700
sg17
g18
sg19
g18
sg20
S'/usr/share/fonts/opentype/stix/STIXIntegralsUpSm-Bold.otf'
p1009
sg22
g23
sbag7
(g8
g9
NtRp1010
(dp1011
g12
g18
sg14
S'Latin Modern Roman'
p1012
sg16
I700
sg17
g18
sg19
g18
sg20
S'/usr/share/texmf/fonts/opentype/public/lm/lmroman10-bold.otf'
p1013
sg22
g23
sbag7
(g8
g9
NtRp1014
(dp1015
g12
g18
sg14
S'Linux Libertine Initials O'
p1016
sg16
I400
sg17
g18
sg19
g18
sg20
S'/usr/share/fonts/opentype/linux-libertine/LinLibertine_I.otf'
p1017
sg22
g23
sbag7
(g8
g9
NtRp1018
(dp1019
g12
g18
sg14
S'Droid Sans Ethiopic'
p1020
sg16
I400
sg17
g18
sg19
g18
sg20
S'/usr/share/fonts/truetype/droid/DroidSansEthiopic-Regular.ttf'
p1021
sg22
g23
sbag7
(g8
g9
NtRp1022
(dp1023
g12
g18
sg14
S'Liberation Sans'
p1024
sg16
I400
sg17
g18
sg19
g18
sg20
S'/usr/share/fonts/truetype/ttf-liberation/LiberationSans-Regular.ttf'
p1025
sg22
g23
sbag7
(g8
g9
NtRp1026
(dp1027
g12
g18
sg14
S'Liberation Sans Narrow'
p1028
sg16
I400
sg17
g264
sg19
g18
sg20
S'/usr/share/fonts/truetype/ttf-liberation/LiberationSansNarrow-Regular.ttf'
p1029
sg22
g23
sbag7
(g8
g9
NtRp1030
(dp1031
g12
g38
sg14
S'Gillius ADF No2'
p1032
sg16
I700
sg17
g18
sg19
g18
sg20
S'/usr/share/fonts/truetype/adf/GilliusADFNo2-BoldItalic.otf'
p1033
sg22
g23
sbag7
(g8
g9
NtRp1034
(dp1035
g12
g18
sg14
S'Latin Modern Roman'
p1036
sg16
I400
sg17
g18
sg19
g18
sg20
S'/usr/share/texmf/fonts/opentype/public/lm/lmroman7-regular.otf'
p1037
sg22
g23
sbag7
(g8
g9
NtRp1038
(dp1039
g12
g38
sg14
S'TeX Gyre Heros'
p1040
sg16
I700
sg17
g18
sg19
g18
sg20
S'/usr/share/texmf/fonts/opentype/public/tex-gyre/texgyreheros-bolditalic.otf'
p1041
sg22
g23
sbag7
(g8
g9
NtRp1042
(dp1043
g12
g38
sg14
S'EB Garamond'
p1044
sg16
I400
sg17
g18
sg19
g18
sg20
S'/usr/share/fonts/truetype/ebgaramond/EBGaramond12-Italic.ttf'
p1045
sg22
g23
sbag7
(g8
g9
NtRp1046
(dp1047
g12
g38
sg14
S'Gillius ADF No2'
p1048
sg16
I400
sg17
g18
sg19
g18
sg20
S'/usr/share/fonts/truetype/adf/GilliusADFNo2-Italic.otf'
p1049
sg22
g23
sbag7
(g8
g9
NtRp1050
(dp1051
g12
g38
sg14
S'TeX Gyre Cursor'
p1052
sg16
I700
sg17
g18
sg19
g18
sg20
S'/usr/share/texmf/fonts/opentype/public/tex-gyre/texgyrecursor-bolditalic.otf'
p1053
sg22
g23
sbag7
(g8
g9
NtRp1054
(dp1055
g12
g18
sg14
S'Accanthis ADF Std No3'
p1056
sg16
I400
sg17
g18
sg19
g18
sg20
S'/usr/share/fonts/truetype/adf/AccanthisADFStdNo3-Regular.otf'
p1057
sg22
g23
sbag7
(g8
g9
NtRp1058
(dp1059
g12
g38
sg14
S'Accanthis ADF Std'
p1060
sg16
I400
sg17
g18
sg19
g18
sg20
S'/usr/share/fonts/truetype/adf/AccanthisADFStd-Italic.otf'
p1061
sg22
g23
sbag7
(g8
g9
NtRp1062
(dp1063
g12
g18
sg14
S'Liberation Mono'
p1064
sg16
I700
sg17
g18
sg19
g18
sg20
S'/usr/share/fonts/truetype/liberation/LiberationMono-Bold.ttf'
p1065
sg22
g23
sbag7
(g8
g9
NtRp1066
(dp1067
g12
g18
sg14
S'FreeSerif'
p1068
sg16
I700
sg17
g18
sg19
g18
sg20
S'/usr/share/fonts/truetype/freefont/FreeSerifBold.ttf'
p1069
sg22
g23
sbag7
(g8
g9
NtRp1070
(dp1071
g12
g18
sg14
S'msam10'
p1072
sg16
I400
sg17
g18
sg19
g18
sg20
S'/usr/share/fonts/truetype/lyx/msam10.ttf'
p1073
sg22
g23
sbag7
(g8
g9
NtRp1074
(dp1075
g12
g18
sg14
S'TeX Gyre Termes'
p1076
sg16
I400
sg17
g18
sg19
g18
sg20
S'/usr/share/texmf/fonts/opentype/public/tex-gyre/texgyretermes-regular.otf'
p1077
sg22
g23
sbag7
(g8
g9
NtRp1078
(dp1079
g12
g18
sg14
S'FontAwesome'
p1080
sg16
I400
sg17
g18
sg19
g18
sg20
S'/usr/share/fonts/opentype/font-awesome/FontAwesome.otf'
p1081
sg22
g23
sbag7
(g8
g9
NtRp1082
(dp1083
g12
g13
sg14
S'DejaVu Sans'
p1084
sg16
I700
sg17
g18
sg19
g18
sg20
S'/usr/share/fonts/truetype/dejavu/DejaVuSans-BoldOblique.ttf'
p1085
sg22
g23
sbag7
(g8
g9
NtRp1086
(dp1087
g12
g18
sg14
S'MathJax_Main'
p1088
sg16
I400
sg17
g18
sg19
g18
sg20
S'/usr/share/fonts/opentype/mathjax/MathJax_Main-Regular.otf'
p1089
sg22
g23
sbag7
(g8
g9
NtRp1090
(dp1091
g12
g38
sg14
S'Liberation Sans Narrow'
p1092
sg16
I400
sg17
g264
sg19
g18
sg20
S'/usr/share/fonts/truetype/ttf-liberation/LiberationSansNarrow-Italic.ttf'
p1093
sg22
g23
sbag7
(g8
g9
NtRp1094
(dp1095
g12
g38
sg14
S'Cabin'
p1096
sg16
I400
sg17
g18
sg19
g18
sg20
S'/usr/share/fonts/opentype/cabin/Cabin-Italic.otf'
p1097
sg22
g23
sbag7
(g8
g9
NtRp1098
(dp1099
g12
g18
sg14
S'Latin Modern Roman Caps'
p1100
sg16
I400
sg17
g18
sg19
g18
sg20
S'/usr/share/texmf/fonts/opentype/public/lm/lmromancaps10-regular.otf'
p1101
sg22
g23
sbag7
(g8
g9
NtRp1102
(dp1103
g12
g18
sg14
S'msbm10'
p1104
sg16
I400
sg17
g18
sg19
g18
sg20
S'/usr/share/fonts/truetype/lyx/msbm10.ttf'
p1105
sg22
g23
sbag7
(g8
g9
NtRp1106
(dp1107
g12
g38
sg14
S'Carlito'
p1108
sg16
I400
sg17
g18
sg19
g18
sg20
S'/usr/share/fonts/truetype/crosextra/Carlito-Italic.ttf'
p1109
sg22
g23
sbag7
(g8
g9
NtRp1110
(dp1111
g12
g38
sg14
S'DejaVu Serif'
p1112
sg16
I400
sg17
g18
sg19
g18
sg20
S'/usr/share/fonts/truetype/dejavu/DejaVuSerif-Italic.ttf'
p1113
sg22
g23
sbag7
(g8
g9
NtRp1114
(dp1115
g12
g38
sg14
S'DejaVu Serif'
p1116
sg16
I700
sg17
g264
sg19
g18
sg20
S'/usr/share/fonts/truetype/dejavu/DejaVuSerifCondensed-BoldItalic.ttf'
p1117
sg22
g23
sbag7
(g8
g9
NtRp1118
(dp1119
g12
g18
sg14
S'Caladea'
p1120
sg16
I700
sg17
g18
sg19
g18
sg20
S'/usr/share/fonts/truetype/crosextra/Caladea-Bold.ttf'
p1121
sg22
g23
sbag7
(g8
g9
NtRp1122
(dp1123
g12
g13
sg14
S'Universalis ADF Cd Std'
p1124
sg16
I400
sg17
g18
sg19
g18
sg20
S'/usr/share/fonts/truetype/adf/UniversalisADFCdStd-Oblique.otf'
p1125
sg22
g23
sbag7
(g8
g9
NtRp1126
(dp1127
g12
g18
sg14
S'STIXSizeTwoSym'
p1128
sg16
I400
sg17
g18
sg19
g18
sg20
S'/usr/share/fonts/opentype/stix/STIXSizeTwoSym-Regular.otf'
p1129
sg22
g23
sbag7
(g8
g9
NtRp1130
(dp1131
g12
g18
sg14
S'TeX Gyre Pagella Math'
p1132
sg16
I400
sg17
g18
sg19
g18
sg20
S'/usr/share/texmf/fonts/opentype/public/tex-gyre-math/texgyrepagella-math.otf'
p1133
sg22
g23
sbag7
(g8
g9
NtRp1134
(dp1135
g12
g18
sg14
S'Droid Sans'
p1136
sg16
I400
sg17
g18
sg19
g18
sg20
S'/usr/share/fonts/truetype/droid/DroidSans.ttf'
p1137
sg22
g23
sbag7
(g8
g9
NtRp1138
(dp1139
g12
g38
sg14
S'TeX Gyre Heros Cn'
p1140
sg16
I400
sg17
g18
sg19
g18
sg20
S'/usr/share/texmf/fonts/opentype/public/tex-gyre/texgyreheroscn-italic.otf'
p1141
sg22
g23
sbag7
(g8
g9
NtRp1142
(dp1143
g12
g38
sg14
S'GFS Neohellenic'
p1144
sg16
I400
sg17
g18
sg19
g18
sg20
S'/usr/share/fonts/truetype/neohellenic/GFSNeohellenicIt.otf'
p1145
sg22
g23
sbag7
(g8
g9
NtRp1146
(dp1147
g12
g18
sg14
S'STIXSizeFiveSym'
p1148
sg16
I400
sg17
g18
sg19
g18
sg20
S'/usr/share/fonts/opentype/stix/STIXSizeFiveSym-Regular.otf'
p1149
sg22
g23
sbag7
(g8
g9
NtRp1150
(dp1151
g12
g18
sg14
S'EB Garamond Initials'
p1152
sg16
I400
sg17
g18
sg19
g18
sg20
S'/usr/share/fonts/truetype/ebgaramond/EBGaramond-Initials.ttf'
p1153
sg22
g23
sbag7
(g8
g9
NtRp1154
(dp1155
g12
g18
sg14
S'Latin Modern Mono'
p1156
sg16
I400
sg17
g18
sg19
g18
sg20
S'/usr/share/texmf/fonts/opentype/public/lm/lmmono12-regular.otf'
p1157
sg22
g23
sbag7
(g8
g9
NtRp1158
(dp1159
g12
g18
sg14
S'MathJax_AMS'
p1160
sg16
I400
sg17
g18
sg19
g18
sg20
S'/usr/share/fonts/opentype/mathjax/MathJax_AMS-Regular.otf'
p1161
sg22
g23
sbag7
(g8
g9
NtRp1162
(dp1163
g12
g38
sg14
S'FreeSerif'
p1164
sg16
I400
sg17
g18
sg19
g18
sg20
S'/usr/share/fonts/opentype/freefont/FreeSerifItalic.otf'
p1165
sg22
g23
sbag7
(g8
g9
NtRp1166
(dp1167
g12
g38
sg14
S'Liberation Sans'
p1168
sg16
I700
sg17
g18
sg19
g18
sg20
S'/usr/share/fonts/truetype/liberation/LiberationSans-BoldItalic.ttf'
p1169
sg22
g23
sbag7
(g8
g9
NtRp1170
(dp1171
g12
g18
sg14
S'TeX Gyre Adventor'
p1172
sg16
I700
sg17
g18
sg19
g18
sg20
S'/usr/share/texmf/fonts/opentype/public/tex-gyre/texgyreadventor-bold.otf'
p1173
sg22
g23
sbag7
(g8
g9
NtRp1174
(dp1175
g12
g18
sg14
S'Lobster Two'
p1176
sg16
I700
sg17
g18
sg19
g18
sg20
S'/usr/share/fonts/opentype/lobstertwo/LobsterTwo-Bold.otf'
p1177
sg22
g23
sbag7
(g8
g9
NtRp1178
(dp1179
g12
g18
sg14
S'TeX Gyre Adventor'
p1180
sg16
I400
sg17
g18
sg19
g18
sg20
S'/usr/share/texmf/fonts/opentype/public/tex-gyre/texgyreadventor-regular.otf'
p1181
sg22
g23
sbag7
(g8
g9
NtRp1182
(dp1183
g12
g18
sg14
S'Latin Modern Mono Light Cond'
p1184
sg16
I400
sg17
g264
sg19
g18
sg20
S'/usr/share/texmf/fonts/opentype/public/lm/lmmonoltcond10-regular.otf'
p1185
sg22
g23
sbag7
(g8
g9
NtRp1186
(dp1187
g12
g18
sg14
S'Latin Modern Roman Demi'
p1188
sg16
I600
sg17
g18
sg19
g18
sg20
S'/usr/share/texmf/fonts/opentype/public/lm/lmromandemi10-regular.otf'
p1189
sg22
g23
sbag7
(g8
g9
NtRp1190
(dp1191
g12
g18
sg14
S'MathJax_Script'
p1192
sg16
I400
sg17
g18
sg19
g18
sg20
S'/usr/share/fonts/opentype/mathjax/MathJax_Script-Regular.otf'
p1193
sg22
g23
sbag7
(g8
g9
NtRp1194
(dp1195
g12
g18
sg14
S'Lato'
p1196
sg16
I900
sg17
g18
sg19
g18
sg20
S'/usr/share/fonts/truetype/lato/Lato-Black.ttf'
p1197
sg22
g23
sbag7
(g8
g9
NtRp1198
(dp1199
g12
g18
sg14
S'GFS Theokritos'
p1200
sg16
I400
sg17
g18
sg19
g18
sg20
S'/usr/share/fonts/truetype/theokritos/GFSTheokritos.otf'
p1201
sg22
g23
sbag7
(g8
g9
NtRp1202
(dp1203
g12
g18
sg14
S'MathJax_Caligraphic'
p1204
sg16
I400
sg17
g18
sg19
g18
sg20
S'/usr/share/fonts/opentype/mathjax/MathJax_Caligraphic-Regular.otf'
p1205
sg22
g23
sbag7
(g8
g9
NtRp1206
(dp1207
g12
g18
sg14
S'OCRABold'
p1208
sg16
I700
sg17
g18
sg19
g18
sg20
S'/usr/share/fonts/truetype/ocr-a/OCRABold.ttf'
p1209
sg22
g23
sbag7
(g8
g9
NtRp1210
(dp1211
g12
g13
sg14
S'Latin Modern Sans Demi Cond'
p1212
sg16
I600
sg17
g264
sg19
g18
sg20
S'/usr/share/texmf/fonts/opentype/public/lm/lmsansdemicond10-oblique.otf'
p1213
sg22
g23
sbag7
(g8
g9
NtRp1214
(dp1215
g12
g18
sg14
S'Linux Libertine O'
p1216
sg16
I700
sg17
g18
sg19
g18
sg20
S'/usr/share/fonts/opentype/linux-libertine/LinLibertine_RB.otf'
p1217
sg22
g23
sbag7
(g8
g9
NtRp1218
(dp1219
g12
g18
sg14
S'DejaVu Sans'
p1220
sg16
I200
sg17
g18
sg19
g18
sg20
S'/usr/share/fonts/truetype/dejavu/DejaVuSans-ExtraLight.ttf'
p1221
sg22
g23
sbag7
(g8
g9
NtRp1222
(dp1223
g12
g18
sg14
S'Lato'
p1224
sg16
I700
sg17
g18
sg19
g18
sg20
S'/usr/share/fonts/truetype/lato/Lato-Semibold.ttf'
p1225
sg22
g23
sbag7
(g8
g9
NtRp1226
(dp1227
g12
g18
sg14
S'Latin Modern Roman Slanted'
p1228
sg16
I400
sg17
g18
sg19
g18
sg20
S'/usr/share/texmf/fonts/opentype/public/lm/lmromanslant17-regular.otf'
p1229
sg22
g23
sbag7
(g8
g9
NtRp1230
(dp1231
g12
g18
sg14
S'TeX Gyre Cursor'
p1232
sg16
I700
sg17
g18
sg19
g18
sg20
S'/usr/share/texmf/fonts/opentype/public/tex-gyre/texgyrecursor-bold.otf'
p1233
sg22
g23
sbag7
(g8
g9
NtRp1234
(dp1235
g12
g13
sg14
S'Latin Modern Mono Light Cond'
p1236
sg16
I200
sg17
g264
sg19
g18
sg20
S'/usr/share/texmf/fonts/opentype/public/lm/lmmonoltcond10-oblique.otf'
p1237
sg22
g23
sbag7
(g8
g9
NtRp1238
(dp1239
g12
g18
sg14
S'Accanthis ADF Std No2'
p1240
sg16
I400
sg17
g18
sg19
g18
sg20
S'/usr/share/fonts/truetype/adf/AccanthisADFStdNo2-Regular.otf'
p1241
sg22
g23
sbag7
(g8
g9
NtRp1242
(dp1243
g12
g18
sg14
S'MathJax_Fraktur'
p1244
sg16
I400
sg17
g18
sg19
g18
sg20
S'/usr/share/fonts/opentype/mathjax/MathJax_Fraktur-Regular.otf'
p1245
sg22
g23
sbag7
(g8
g9
NtRp1246
(dp1247
g12
g18
sg14
S'Latin Modern Roman'
p1248
sg16
I700
sg17
g18
sg19
g18
sg20
S'/usr/share/texmf/fonts/opentype/public/lm/lmroman7-bold.otf'
p1249
sg22
g23
sbag7
(g8
g9
NtRp1250
(dp1251
g12
g38
sg14
S'EB Garamond'
p1252
sg16
I400
sg17
g18
sg19
g18
sg20
S'/usr/share/fonts/truetype/ebgaramond/EBGaramond08-Italic.ttf'
p1253
sg22
g23
sbag7
(g8
g9
NtRp1254
(dp1255
g12
g18
sg14
S'Latin Modern Roman'
p1256
sg16
I700
sg17
g18
sg19
g18
sg20
S'/usr/share/texmf/fonts/opentype/public/lm/lmroman9-bold.otf'
p1257
sg22
g23
sbag7
(g8
g9
NtRp1258
(dp1259
g12
g18
sg14
S'IPAPGothic'
p1260
sg16
I400
sg17
g18
sg19
g18
sg20
S'/usr/share/fonts/opentype/ipafont-gothic/ipagp.ttf'
p1261
sg22
g23
sbag7
(g8
g9
NtRp1262
(dp1263
g12
g38
sg14
S'GFS Artemisia'
p1264
sg16
I400
sg17
g18
sg19
g18
sg20
S'/usr/share/fonts/truetype/artemisia/GFSArtemisiaIt.otf'
p1265
sg22
g23
sbag7
(g8
g9
NtRp1266
(dp1267
g12
g18
sg14
S'STIXSizeThreeSym'
p1268
sg16
I400
sg17
g18
sg19
g18
sg20
S'/usr/share/fonts/opentype/stix/STIXSizeThreeSym-Regular.otf'
p1269
sg22
g23
sbag7
(g8
g9
NtRp1270
(dp1271
g12
g18
sg14
S'GFS Didot'
p1272
sg16
I700
sg17
g18
sg19
g18
sg20
S'/usr/share/fonts/truetype/didot/GFSDidotBold.otf'
p1273
sg22
g23
sbag7
(g8
g9
NtRp1274
(dp1275
g12
g13
sg14
S'Latin Modern Sans'
p1276
sg16
I400
sg17
g18
sg19
g18
sg20
S'/usr/share/texmf/fonts/opentype/public/lm/lmsans8-oblique.otf'
p1277
sg22
g23
sbag7
(g8
g9
NtRp1278
(dp1279
g12
g13
sg14
S'FreeMono'
p1280
sg16
I700
sg17
g18
sg19
g18
sg20
S'/usr/share/fonts/truetype/freefont/FreeMonoBoldOblique.ttf'
p1281
sg22
g23
sbag7
(g8
g9
NtRp1282
(dp1283
g12
g38
sg14
S'Accanthis ADF Std No3'
p1284
sg16
I700
sg17
g18
sg19
g18
sg20
S'/usr/share/fonts/truetype/adf/AccanthisADFStdNo3-BoldItalic.otf'
p1285
sg22
g23
sbag7
(g8
g9
NtRp1286
(dp1287
g12
g38
sg14
S'Gillius ADF Cd'
p1288
sg16
I700
sg17
g18
sg19
g18
sg20
S'/usr/share/fonts/truetype/adf/GilliusADFCd-BoldItalic.otf'
p1289
sg22
g23
sbag7
(g8
g9
NtRp1290
(dp1291
g12
g18
sg14
S'TeX Gyre Schola'
p1292
sg16
I700
sg17
g18
sg19
g18
sg20
S'/usr/share/texmf/fonts/opentype/public/tex-gyre/texgyreschola-bold.otf'
p1293
sg22
g23
sbag7
(g8
g9
NtRp1294
(dp1295
g12
g18
sg14
S'MathJax_Size2'
p1296
sg16
I400
sg17
g18
sg19
g18
sg20
S'/usr/share/fonts/opentype/mathjax/MathJax_Size2-Regular.otf'
p1297
sg22
g23
sbag7
(g8
g9
NtRp1298
(dp1299
g12
g18
sg14
S'MathJax_Size3'
p1300
sg16
I400
sg17
g18
sg19
g18
sg20
S'/usr/share/fonts/opentype/mathjax/MathJax_Size3-Regular.otf'
p1301
sg22
g23
sbag7
(g8
g9
NtRp1302
(dp1303
g12
g18
sg14
S'GFS Gazis'
p1304
sg16
I400
sg17
g18
sg19
g18
sg20
S'/usr/share/fonts/truetype/gazis/GFSGazis.otf'
p1305
sg22
g23
sbag7
(g8
g9
NtRp1306
(dp1307
g12
g18
sg14
S'Amiri Quran'
p1308
sg16
I400
sg17
g18
sg19
g18
sg20
S'/usr/share/fonts/opentype/fonts-hosny-amiri/amiri-quran.ttf'
p1309
sg22
g23
sbag7
(g8
g9
NtRp1310
(dp1311
g12
g38
sg14
S'DejaVu Serif'
p1312
sg16
I400
sg17
g264
sg19
g18
sg20
S'/usr/share/fonts/truetype/dejavu/DejaVuSerifCondensed-Italic.ttf'
p1313
sg22
g23
sbag7
(g8
g9
NtRp1314
(dp1315
g12
g38
sg14
S'Liberation Sans Narrow'
p1316
sg16
I700
sg17
g264
sg19
g18
sg20
S'/usr/share/fonts/truetype/liberation/LiberationSansNarrow-BoldItalic.ttf'
p1317
sg22
g23
sbag7
(g8
g9
NtRp1318
(dp1319
g12
g18
sg14
S'Latin Modern Roman Dunhill'
p1320
sg16
I400
sg17
g18
sg19
g18
sg20
S'/usr/share/texmf/fonts/opentype/public/lm/lmromandunh10-regular.otf'
p1321
sg22
g23
sbag7
(g8
g9
NtRp1322
(dp1323
g12
g18
sg14
S'GFS Didot'
p1324
sg16
I400
sg17
g18
sg19
g18
sg20
S'/usr/share/fonts/truetype/didot/GFSDidot.otf'
p1325
sg22
g23
sbag7
(g8
g9
NtRp1326
(dp1327
g12
g18
sg14
S'Latin Modern Sans'
p1328
sg16
I400
sg17
g18
sg19
g18
sg20
S'/usr/share/texmf/fonts/opentype/public/lm/lmsans17-regular.otf'
p1329
sg22
g23
sbag7
(g8
g9
NtRp1330
(dp1331
g12
g18
sg14
S'STIXSizeTwoSym'
p1332
sg16
I700
sg17
g18
sg19
g18
sg20
S'/usr/share/fonts/opentype/stix/STIXSizeTwoSym-Bold.otf'
p1333
sg22
g23
sbag7
(g8
g9
NtRp1334
(dp1335
g12
g18
sg14
S'MathJax_Main'
p1336
sg16
I700
sg17
g18
sg19
g18
sg20
S'/usr/share/fonts/opentype/mathjax/MathJax_Main-Bold.otf'
p1337
sg22
g23
sbag7
(g8
g9
NtRp1338
(dp1339
g12
g18
sg14
S'IPAexMincho'
p1340
sg16
I400
sg17
g18
sg19
g18
sg20
S'/usr/share/fonts/opentype/ipaexfont-mincho/ipaexm.ttf'
p1341
sg22
g23
sbag7
(g8
g9
NtRp1342
(dp1343
g12
g18
sg14
S'EB Garamond'
p1344
sg16
I400
sg17
g18
sg19
g18
sg20
S'/usr/share/fonts/opentype/ebgaramond/EBGaramond12-Regular.otf'
p1345
sg22
g23
sbag7
(g8
g9
NtRp1346
(dp1347
g12
g38
sg14
S'Lobster Two'
p1348
sg16
I700
sg17
g18
sg19
g18
sg20
S'/usr/share/fonts/opentype/lobster/lobster.otf'
p1349
sg22
g23
sbag7
(g8
g9
NtRp1350
(dp1351
g12
g18
sg14
S'Droid Arabic Kufi'
p1352
sg16
I400
sg17
g18
sg19
g18
sg20
S'/usr/share/fonts/truetype/droid/DroidKufi-Regular.ttf'
p1353
sg22
g23
sbag7
(g8
g9
NtRp1354
(dp1355
g12
g18
sg14
S'IPAexGothic'
p1356
sg16
I400
sg17
g18
sg19
g18
sg20
S'/usr/share/fonts/opentype/ipaexfont-gothic/ipaexg.ttf'
p1357
sg22
g23
sbag7
(g8
g9
NtRp1358
(dp1359
g12
g38
sg14
S'Carlito'
p1360
sg16
I700
sg17
g18
sg19
g18
sg20
S'/usr/share/fonts/truetype/crosextra/Carlito-BoldItalic.ttf'
p1361
sg22
g23
sbag7
(g8
g9
NtRp1362
(dp1363
g12
g38
sg14
S'Gentium Book Basic'
p1364
sg16
I400
sg17
g18
sg19
g18
sg20
S'/usr/share/fonts/truetype/gentium-basic/GenBkBasI.ttf'
p1365
sg22
g23
sbag7
(g8
g9
NtRp1366
(dp1367
g12
g13
sg14
S'DejaVu Sans'
p1368
sg16
I400
sg17
g18
sg19
g18
sg20
S'/usr/share/fonts/truetype/dejavu/DejaVuSans-Oblique.ttf'
p1369
sg22
g23
sbag7
(g8
g9
NtRp1370
(dp1371
g12
g18
sg14
S'TeX Gyre Chorus'
p1372
sg16
I400
sg17
g18
sg19
g18
sg20
S'/usr/share/texmf/fonts/opentype/public/tex-gyre/texgyrechorus-mediumitalic.otf'
p1373
sg22
g23
sbag7
(g8
g9
NtRp1374
(dp1375
g12
g18
sg14
S'FreeSerif'
p1376
sg16
I400
sg17
g18
sg19
g18
sg20
S'/usr/share/fonts/truetype/freefont/FreeSerif.ttf'
p1377
sg22
g23
sbag7
(g8
g9
NtRp1378
(dp1379
g12
g18
sg14
S'Latin Modern Roman Slanted'
p1380
sg16
I400
sg17
g18
sg19
g18
sg20
S'/usr/share/texmf/fonts/opentype/public/lm/lmromanslant10-regular.otf'
p1381
sg22
g23
sbag7
(g8
g9
NtRp1382
(dp1383
g12
g38
sg14
S'STIXGeneral'
p1384
sg16
I400
sg17
g18
sg19
g18
sg20
S'/usr/share/fonts/opentype/stix/STIXGeneral-Italic.otf'
p1385
sg22
g23
sbag7
(g8
g9
NtRp1386
(dp1387
g12
g18
sg14
S'Droid Sans Japanese'
p1388
sg16
I400
sg17
g18
sg19
g18
sg20
S'/usr/share/fonts/truetype/droid/DroidSansJapanese.ttf'
p1389
sg22
g23
sbag7
(g8
g9
NtRp1390
(dp1391
g12
g18
sg14
S'STIXIntegralsSm'
p1392
sg16
I400
sg17
g18
sg19
g18
sg20
S'/usr/share/fonts/opentype/stix/STIXIntegralsSm-Regular.otf'
p1393
sg22
g23
sbag7
(g8
g9
NtRp1394
(dp1395
g12
g13
sg14
S'Latin Modern Sans'
p1396
sg16
I700
sg17
g18
sg19
g18
sg20
S'/usr/share/texmf/fonts/opentype/public/lm/lmsans10-boldoblique.otf'
p1397
sg22
g23
sbag7
(g8
g9
NtRp1398
(dp1399
g12
g18
sg14
S'Accanthis ADF Std'
p1400
sg16
I700
sg17
g18
sg19
g18
sg20
S'/usr/share/fonts/truetype/adf/AccanthisADFStd-Bold.otf'
p1401
sg22
g23
sbag7
(g8
g9
NtRp1402
(dp1403
g12
g18
sg14
S'Linux Libertine Mono O'
p1404
sg16
I400
sg17
g18
sg19
g18
sg20
S'/usr/share/fonts/opentype/linux-libertine/LinLibertine_M.otf'
p1405
sg22
g23
sbag7
(g8
g9
NtRp1406
(dp1407
g12
g13
sg14
S'Universalis ADF Std'
p1408
sg16
I700
sg17
g18
sg19
g18
sg20
S'/usr/share/fonts/truetype/adf/UniversalisADFStd-BoldOblique.otf'
p1409
sg22
g23
sbag7
(g8
g9
NtRp1410
(dp1411
g12
g18
sg14
S'STIXGeneral'
p1412
sg16
I700
sg17
g18
sg19
g18
sg20
S'/usr/share/fonts/opentype/stix/STIXGeneral-Bold.otf'
p1413
sg22
g23
sbag7
(g8
g9
NtRp1414
(dp1415
g12
g18
sg14
S'GFS Complutum'
p1416
sg16
I400
sg17
g18
sg19
g18
sg20
S'/usr/share/fonts/truetype/complutum/GFSPolyglot.otf'
p1417
sg22
g23
sbag7
(g8
g9
NtRp1418
(dp1419
g12
g18
sg14
S'STIXSizeFourSym'
p1420
sg16
I400
sg17
g18
sg19
g18
sg20
S'/usr/share/fonts/opentype/stix/STIXSizeFourSym-Regular.otf'
p1421
sg22
g23
sbag7
(g8
g9
NtRp1422
(dp1423
g12
g18
sg14
S'Carlito'
p1424
sg16
I700
sg17
g18
sg19
g18
sg20
S'/usr/share/fonts/truetype/crosextra/Carlito-Bold.ttf'
p1425
sg22
g23
sbag7
(g8
g9
NtRp1426
(dp1427
g12
g38
sg14
S'Linux Libertine O'
p1428
sg16
I700
sg17
g18
sg19
g18
sg20
S'/usr/share/fonts/opentype/linux-libertine/LinLibertine_RBI.otf'
p1429
sg22
g23
sbag7
(g8
g9
NtRp1430
(dp1431
g12
g18
sg14
S'IPAPMincho'
p1432
sg16
I400
sg17
g18
sg19
g18
sg20
S'/usr/share/fonts/opentype/ipafont-mincho/ipamp.ttf'
p1433
sg22
g23
sbag7
(g8
g9
NtRp1434
(dp1435
g12
g38
sg14
S'FreeSerif'
p1436
sg16
I400
sg17
g18
sg19
g18
sg20
S'/usr/share/fonts/truetype/freefont/FreeSerifItalic.ttf'
p1437
sg22
g23
sbag7
(g8
g9
NtRp1438
(dp1439
g12
g38
sg14
S'Cabin'
p1440
sg16
I700
sg17
g18
sg19
g18
sg20
S'/usr/share/fonts/opentype/cabin/Cabin-BoldItalic.otf'
p1441
sg22
g23
sbag7
(g8
g9
NtRp1442
(dp1443
g12
g13
sg14
S'Latin Modern Roman Caps'
p1444
sg16
I500
sg17
g18
sg19
g18
sg20
S'/usr/share/texmf/fonts/opentype/public/lm/lmromancaps10-oblique.otf'
p1445
sg22
g23
sbag7
(g8
g9
NtRp1446
(dp1447
g12
g38
sg14
S'Caladea'
p1448
sg16
I700
sg17
g18
sg19
g18
sg20
S'/usr/share/fonts/truetype/crosextra/Caladea-BoldItalic.ttf'
p1449
sg22
g23
sbag7
(g8
g9
NtRp1450
(dp1451
g12
g38
sg14
S'TeX Gyre Adventor'
p1452
sg16
I400
sg17
g18
sg19
g18
sg20
S'/usr/share/texmf/fonts/opentype/public/tex-gyre/texgyreadventor-italic.otf'
p1453
sg22
g23
sbag7
(g8
g9
NtRp1454
(dp1455
g12
g18
sg14
S'EB Garamond Initials Fill2'
p1456
sg16
I400
sg17
g18
sg19
g18
sg20
S'/usr/share/fonts/truetype/ebgaramond/EBGaramond-InitialsF2.ttf'
p1457
sg22
g23
sbag7
(g8
g9
NtRp1458
(dp1459
g12
g38
sg14
S'TeX Gyre Cursor'
p1460
sg16
I400
sg17
g18
sg19
g18
sg20
S'/usr/share/texmf/fonts/opentype/public/tex-gyre/texgyrecursor-italic.otf'
p1461
sg22
g23
sbag7
(g8
g9
NtRp1462
(dp1463
g12
g38
sg14
S'Accanthis ADF Std No2'
p1464
sg16
I400
sg17
g18
sg19
g18
sg20
S'/usr/share/fonts/truetype/adf/AccanthisADFStdNo2-Italic.otf'
p1465
sg22
g23
sbag7
(g8
g9
NtRp1466
(dp1467
g12
g18
sg14
S'Latin Modern Roman'
p1468
sg16
I400
sg17
g18
sg19
g18
sg20
S'/usr/share/texmf/fonts/opentype/public/lm/lmroman6-regular.otf'
p1469
sg22
g23
sbag7
(g8
g9
NtRp1470
(dp1471
g12
g18
sg14
S'Gillius ADF Cd'
p1472
sg16
I700
sg17
g18
sg19
g18
sg20
S'/usr/share/fonts/truetype/adf/GilliusADFCd-Bold.otf'
p1473
sg22
g23
sbag7
(g8
g9
NtRp1474
(dp1475
g12
g18
sg14
S'STIXIntegralsUpSm'
p1476
sg16
I400
sg17
g18
sg19
g18
sg20
S'/usr/share/fonts/opentype/stix/STIXIntegralsUpSm-Regular.otf'
p1477
sg22
g23
sbag7
(g8
g9
NtRp1478
(dp1479
g12
g18
sg14
S'MathJax_SansSerif'
p1480
sg16
I400
sg17
g18
sg19
g18
sg20
S'/usr/share/fonts/opentype/mathjax/MathJax_SansSerif-Regular.otf'
p1481
sg22
g23
sbag7
(g8
g9
NtRp1482
(dp1483
g12
g38
sg14
S'Junicode'
p1484
sg16
I400
sg17
g18
sg19
g18
sg20
S'/usr/share/fonts/truetype/junicode/Junicode-Italic.ttf'
p1485
sg22
g23
sbag7
(g8
g9
NtRp1486
(dp1487
g12
g13
sg14
S'Latin Modern Mono Light'
p1488
sg16
I200
sg17
g18
sg19
g18
sg20
S'/usr/share/texmf/fonts/opentype/public/lm/lmmonolt10-oblique.otf'
p1489
sg22
g23
sbag7
(g8
g9
NtRp1490
(dp1491
g12
g18
sg14
S'FreeMono'
p1492
sg16
I400
sg17
g18
sg19
g18
sg20
S'/usr/share/fonts/opentype/freefont/FreeMono.otf'
p1493
sg22
g23
sbag7
(g8
g9
NtRp1494
(dp1495
g12
g18
sg14
S'Droid Serif'
p1496
sg16
I700
sg17
g18
sg19
g18
sg20
S'/usr/share/fonts/truetype/droid/DroidSerif-Bold.ttf'
p1497
sg22
g23
sbag7
(g8
g9
NtRp1498
(dp1499
g12
g18
sg14
S'Universalis ADF Std'
p1500
sg16
I400
sg17
g18
sg19
g18
sg20
S'/usr/share/fonts/truetype/adf/UniversalisADFStd-Regular.otf'
p1501
sg22
g23
sbag7
(g8
g9
NtRp1502
(dp1503
g12
g38
sg14
S'TeX Gyre Bonum'
p1504
sg16
I400
sg17
g18
sg19
g18
sg20
S'/usr/share/texmf/fonts/opentype/public/tex-gyre/texgyrebonum-italic.otf'
p1505
sg22
g23
sbag7
(g8
g9
NtRp1506
(dp1507
g12
g18
sg14
S'Gentium'
p1508
sg16
I400
sg17
g18
sg19
g18
sg20
S'/usr/share/fonts/truetype/gentium/GenR102.ttf'
p1509
sg22
g23
sbag7
(g8
g9
NtRp1510
(dp1511
g12
g13
sg14
S'FreeSans'
p1512
sg16
I400
sg17
g18
sg19
g18
sg20
S'/usr/share/fonts/truetype/freefont/FreeSansOblique.ttf'
p1513
sg22
g23
sbag7
(g8
g9
NtRp1514
(dp1515
g12
g18
sg14
S'Gentium Basic'
p1516
sg16
I700
sg17
g18
sg19
g18
sg20
S'/usr/share/fonts/truetype/gentium-basic/GenBasB.ttf'
p1517
sg22
g23
sbag7
(g8
g9
NtRp1518
(dp1519
g12
g13
sg14
S'Latin Modern Roman Dunhill'
p1520
sg16
I500
sg17
g18
sg19
g18
sg20
S'/usr/share/texmf/fonts/opentype/public/lm/lmromandunh10-oblique.otf'
p1521
sg22
g23
sbag7
(g8
g9
NtRp1522
(dp1523
g12
g18
sg14
S'Liberation Sans'
p1524
sg16
I700
sg17
g18
sg19
g18
sg20
S'/usr/share/fonts/truetype/liberation/LiberationSans-Bold.ttf'
p1525
sg22
g23
sbag7
(g8
g9
NtRp1526
(dp1527
g12
g18
sg14
S'Accanthis ADF Std No3'
p1528
sg16
I700
sg17
g18
sg19
g18
sg20
S'/usr/share/fonts/truetype/adf/AccanthisADFStdNo3-Bold.otf'
p1529
sg22
g23
sbag7
(g8
g9
NtRp1530
(dp1531
g12
g18
sg14
S'Liberation Mono'
p1532
sg16
I400
sg17
g18
sg19
g18
sg20
S'/usr/share/fonts/truetype/liberation/LiberationMono-Regular.ttf'
p1533
sg22
g23
sbag7
(g8
g9
NtRp1534
(dp1535
g12
g18
sg14
S'MathJax_Typewriter'
p1536
sg16
I400
sg17
g18
sg19
g18
sg20
S'/usr/share/fonts/opentype/mathjax/MathJax_Typewriter-Regular.otf'
p1537
sg22
g23
sbag7
(g8
g9
NtRp1538
(dp1539
g12
g18
sg14
S'STIXVariants'
p1540
sg16
I400
sg17
g18
sg19
g18
sg20
S'/usr/share/fonts/opentype/stix/STIXVariants-Regular.otf'
p1541
sg22
g23
sbag7
(g8
g9
NtRp1542
(dp1543
g12
g18
sg14
S'Latin Modern Sans'
p1544
sg16
I400
sg17
g18
sg19
g18
sg20
S'/usr/share/texmf/fonts/opentype/public/lm/lmsans10-regular.otf'
p1545
sg22
g23
sbag7
(g8
g9
NtRp1546
(dp1547
g12
g38
sg14
S'rsfs10'
p1548
sg16
I400
sg17
g18
sg19
g18
sg20
S'/usr/share/fonts/truetype/lyx/rsfs10.ttf'
p1549
sg22
g23
sbag7
(g8
g9
NtRp1550
(dp1551
g12
g18
sg14
S'Gentium Book Basic'
p1552
sg16
I700
sg17
g18
sg19
g18
sg20
S'/usr/share/fonts/truetype/gentium-basic/GenBkBasB.ttf'
p1553
sg22
g23
sbag7
(g8
g9
NtRp1554
(dp1555
g12
g13
sg14
S'Latin Modern Sans'
p1556
sg16
I400
sg17
g18
sg19
g18
sg20
S'/usr/share/texmf/fonts/opentype/public/lm/lmsans10-oblique.otf'
p1557
sg22
g23
sbag7
(g8
g9
NtRp1558
(dp1559
g12
g38
sg14
S'Cabin'
p1560
sg16
I700
sg17
g18
sg19
g18
sg20
S'/usr/share/fonts/opentype/cabin/Cabin-SemiBoldItalic.otf'
p1561
sg22
g23
sbag7
(g8
g9
NtRp1562
(dp1563
g12
g18
sg14
S'Latin Modern Sans Quotation'
p1564
sg16
I400
sg17
g18
sg19
g18
sg20
S'/usr/share/texmf/fonts/opentype/public/lm/lmsansquot8-regular.otf'
p1565
sg22
g23
sbag7
(g8
g9
NtRp1566
(dp1567
g12
g38
sg14
S'Accanthis ADF Std'
p1568
sg16
I700
sg17
g18
sg19
g18
sg20
S'/usr/share/fonts/truetype/adf/AccanthisADFStd-BoldItalic.otf'
p1569
sg22
g23
sbag7
(g8
g9
NtRp1570
(dp1571
g12
g18
sg14
S'Linux Libertine Display O'
p1572
sg16
I400
sg17
g18
sg19
g18
sg20
S'/usr/share/fonts/opentype/linux-libertine/LinLibertine_DR.otf'
p1573
sg22
g23
sbag7
(g8
g9
NtRp1574
(dp1575
g12
g13
sg14
S'Latin Modern Mono Caps'
p1576
sg16
I400
sg17
g18
sg19
g18
sg20
S'/usr/share/texmf/fonts/opentype/public/lm/lmmonocaps10-oblique.otf'
p1577
sg22
g23
sbag7
(g8
g9
NtRp1578
(dp1579
g12
g18
sg14
S'Lobster Two'
p1580
sg16
I400
sg17
g18
sg19
g18
sg20
S'/usr/share/fonts/opentype/lobstertwo/LobsterTwo-Regular.otf'
p1581
sg22
g23
sbag7
(g8
g9
NtRp1582
(dp1583
g12
g18
sg14
S'Latin Modern Roman'
p1584
sg16
I400
sg17
g18
sg19
g18
sg20
S'/usr/share/texmf/fonts/opentype/public/lm/lmroman10-regular.otf'
p1585
sg22
g23
sbag7
(g8
g9
NtRp1586
(dp1587
g12
g13
sg14
S'FreeMono'
p1588
sg16
I400
sg17
g18
sg19
g18
sg20
S'/usr/share/fonts/opentype/freefont/FreeMonoOblique.otf'
p1589
sg22
g23
sbag7
(g8
g9
NtRp1590
(dp1591
g12
g18
sg14
S'eufm10'
p1592
sg16
I400
sg17
g18
sg19
g18
sg20
S'/usr/share/fonts/truetype/lyx/eufm10.ttf'
p1593
sg22
g23
sbag7
(g8
g9
NtRp1594
(dp1595
g12
g18
sg14
S'esint10'
p1596
sg16
I400
sg17
g18
sg19
g18
sg20
S'/usr/share/fonts/truetype/lyx/esint10.ttf'
p1597
sg22
g23
sbag7
(g8
g9
NtRp1598
(dp1599
g12
g18
sg14
S'Latin Modern Roman'
p1600
sg16
I400
sg17
g18
sg19
g18
sg20
S'/usr/share/texmf/fonts/opentype/public/lm/lmroman17-regular.otf'
p1601
sg22
g23
sbag7
(g8
g9
NtRp1602
(dp1603
g12
g18
sg14
S'STIXIntegralsUpD'
p1604
sg16
I400
sg17
g18
sg19
g18
sg20
S'/usr/share/fonts/opentype/stix/STIXIntegralsUpD-Regular.otf'
p1605
sg22
g23
sbag7
(g8
g9
NtRp1606
(dp1607
g12
g38
sg14
S'Lato'
p1608
sg16
I400
sg17
g18
sg19
g18
sg20
S'/usr/share/fonts/truetype/lato/Lato-Italic.ttf'
p1609
sg22
g23
sbag7
(g8
g9
NtRp1610
(dp1611
g12
g38
sg14
S'Junicode'
p1612
sg16
I700
sg17
g18
sg19
g18
sg20
S'/usr/share/fonts/truetype/junicode/Junicode-BoldItalic.ttf'
p1613
sg22
g23
sbag7
(g8
g9
NtRp1614
(dp1615
g12
g38
sg14
S'MathJax_SansSerif'
p1616
sg16
I400
sg17
g18
sg19
g18
sg20
S'/usr/share/fonts/opentype/mathjax/MathJax_SansSerif-Italic.otf'
p1617
sg22
g23
sbag7
(g8
g9
NtRp1618
(dp1619
g12
g18
sg14
S'TeX Gyre Schola'
p1620
sg16
I400
sg17
g18
sg19
g18
sg20
S'/usr/share/texmf/fonts/opentype/public/tex-gyre/texgyreschola-regular.otf'
p1621
sg22
g23
sbag7
(g8
g9
NtRp1622
(dp1623
g12
g13
sg14
S'Latin Modern Roman Demi'
p1624
sg16
I600
sg17
g18
sg19
g18
sg20
S'/usr/share/texmf/fonts/opentype/public/lm/lmromandemi10-oblique.otf'
p1625
sg22
g23
sbag7
(g8
g9
NtRp1626
(dp1627
g12
g18
sg14
S'Lato'
p1628
sg16
I800
sg17
g18
sg19
g18
sg20
S'/usr/share/fonts/truetype/lato/Lato-Heavy.ttf'
p1629
sg22
g23
sbag7
(g8
g9
NtRp1630
(dp1631
g12
g38
sg14
S'Gillius ADF'
p1632
sg16
I700
sg17
g18
sg19
g18
sg20
S'/usr/share/fonts/truetype/adf/GilliusADF-BoldItalic.otf'
p1633
sg22
g23
sbag7
(g8
g9
NtRp1634
(dp1635
g12
g18
sg14
S'MathJax_Math'
p1636
sg16
I400
sg17
g18
sg19
g18
sg20
S'/usr/share/fonts/opentype/mathjax/MathJax_Math-Regular.otf'
p1637
sg22
g23
sbag7
(g8
g9
NtRp1638
(dp1639
g12
g38
sg14
S'Cabin'
p1640
sg16
I500
sg17
g18
sg19
g18
sg20
S'/usr/share/fonts/opentype/cabin/Cabin-MediumItalic.otf'
p1641
sg22
g23
sbag7
(g8
g9
NtRp1642
(dp1643
g12
g18
sg14
S'Droid Sans Georgian'
p1644
sg16
I400
sg17
g18
sg19
g18
sg20
S'/usr/share/fonts/truetype/droid/DroidSansGeorgian.ttf'
p1645
sg22
g23
sbag7
(g8
g9
NtRp1646
(dp1647
g12
g18
sg14
S'GFS Artemisia'
p1648
sg16
I400
sg17
g18
sg19
g18
sg20
S'/usr/share/fonts/truetype/artemisia/GFSArtemisia.otf'
p1649
sg22
g23
sbag7
(g8
g9
NtRp1650
(dp1651
g12
g18
sg14
S'Caladea'
p1652
sg16
I400
sg17
g18
sg19
g18
sg20
S'/usr/share/fonts/truetype/crosextra/Caladea-Regular.ttf'
p1653
sg22
g23
sbag7
(g8
g9
NtRp1654
(dp1655
g12
g18
sg14
S'IPAexMincho'
p1656
sg16
I400
sg17
g18
sg19
g18
sg20
S'/usr/share/fonts/truetype/fonts-japanese-mincho.ttf'
p1657
sg22
g23
sbag7
(g8
g9
NtRp1658
(dp1659
g12
g18
sg14
S'Latin Modern Mono Light'
p1660
sg16
I400
sg17
g18
sg19
g18
sg20
S'/usr/share/texmf/fonts/opentype/public/lm/lmmonolt10-regular.otf'
p1661
sg22
g23
sbag7
(g8
g9
NtRp1662
(dp1663
g12
g18
sg14
S'Carlito'
p1664
sg16
I400
sg17
g18
sg19
g18
sg20
S'/usr/share/fonts/truetype/crosextra/Carlito-Regular.ttf'
p1665
sg22
g23
sbag7
(g8
g9
NtRp1666
(dp1667
g12
g38
sg14
S'Linux Libertine O'
p1668
sg16
I400
sg17
g18
sg19
g18
sg20
S'/usr/share/fonts/opentype/linux-libertine/LinLibertine_RI.otf'
p1669
sg22
g23
sbag7
(g8
g9
NtRp1670
(dp1671
g12
g18
sg14
S'Linux Biolinum O'
p1672
sg16
I400
sg17
g18
sg19
g18
sg20
S'/usr/share/fonts/opentype/linux-libertine/LinBiolinum_R.otf'
p1673
sg22
g23
sbag7
(g8
g9
NtRp1674
(dp1675
g12
g13
sg14
S'Latin Modern Mono Prop Light'
p1676
sg16
I200
sg17
g18
sg19
g18
sg20
S'/usr/share/texmf/fonts/opentype/public/lm/lmmonoproplt10-oblique.otf'
p1677
sg22
g23
sbag7
(g8
g9
NtRp1678
(dp1679
g12
g18
sg14
S'Latin Modern Roman'
p1680
sg16
I700
sg17
g18
sg19
g18
sg20
S'/usr/share/texmf/fonts/opentype/public/lm/lmroman5-bold.otf'
p1681
sg22
g23
sbag7
(g8
g9
NtRp1682
(dp1683
g12
g18
sg14
S'DejaVu Sans Mono'
p1684
sg16
I400
sg17
g18
sg19
g18
sg20
S'/usr/share/fonts/truetype/dejavu/DejaVuSansMono.ttf'
p1685
sg22
g23
sbag7
(g8
g9
NtRp1686
(dp1687
g12
g18
sg14
S'MathJax_WinIE6'
p1688
sg16
I400
sg17
g18
sg19
g18
sg20
S'/usr/share/fonts/opentype/mathjax/MathJax_WinIE6-Regular.otf'
p1689
sg22
g23
sbag7
(g8
g9
NtRp1690
(dp1691
g12
g18
sg14
S'OpenSymbol'
p1692
sg16
I400
sg17
g18
sg19
g18
sg20
S'/usr/share/fonts/truetype/openoffice/opens___.ttf'
p1693
sg22
g23
sbag7
(g8
g9
NtRp1694
(dp1695
g12
g38
sg14
S'MathJax_Math'
p1696
sg16
I400
sg17
g18
sg19
g18
sg20
S'/usr/share/fonts/opentype/mathjax/MathJax_Math-Italic.otf'
p1697
sg22
g23
sbag7
(g8
g9
NtRp1698
(dp1699
g12
g18
sg14
S'Latin Modern Mono Light'
p1700
sg16
I700
sg17
g18
sg19
g18
sg20
S'/usr/share/texmf/fonts/opentype/public/lm/lmmonolt10-bold.otf'
p1701
sg22
g23
sbag7
(g8
g9
NtRp1702
(dp1703
g12
g18
sg14
S'Gillius ADF No2'
p1704
sg16
I700
sg17
g18
sg19
g18
sg20
S'/usr/share/fonts/truetype/adf/GilliusADFNo2-Bold.otf'
p1705
sg22
g23
sbag7
(g8
g9
NtRp1706
(dp1707
g12
g18
sg14
S'TeX Gyre Termes'
p1708
sg16
I700
sg17
g18
sg19
g18
sg20
S'/usr/share/texmf/fonts/opentype/public/tex-gyre/texgyretermes-bold.otf'
p1709
sg22
g23
sbag7
(g8
g9
NtRp1710
(dp1711
g12
g18
sg14
S'GentiumAlt'
p1712
sg16
I400
sg17
g18
sg19
g18
sg20
S'/usr/share/fonts/truetype/gentium/GenAR102.ttf'
p1713
sg22
g23
sbag7
(g8
g9
NtRp1714
(dp1715
g12
g38
sg14
S'Droid Serif'
p1716
sg16
I400
sg17
g18
sg19
g18
sg20
S'/usr/share/fonts/truetype/droid/DroidSerif-Italic.ttf'
p1717
sg22
g23
sbag7
(g8
g9
NtRp1718
(dp1719
g12
g18
sg14
S'Latin Modern Roman'
p1720
sg16
I400
sg17
g18
sg19
g18
sg20
S'/usr/share/texmf/fonts/opentype/public/lm/lmroman9-regular.otf'
p1721
sg22
g23
sbag7
(g8
g9
NtRp1722
(dp1723
g12
g18
sg14
S'Cabin'
p1724
sg16
I700
sg17
g18
sg19
g18
sg20
S'/usr/share/fonts/opentype/cabin/Cabin-SemiBold.otf'
p1725
sg22
g23
sbag7
(g8
g9
NtRp1726
(dp1727
g12
g18
sg14
S'STIXNonUnicode'
p1728
sg16
I700
sg17
g18
sg19
g18
sg20
S'/usr/share/fonts/opentype/stix/STIXNonUnicode-Bold.otf'
p1729
sg22
g23
sbag7
(g8
g9
NtRp1730
(dp1731
g12
g38
sg14
S'FreeSerif'
p1732
sg16
I700
sg17
g18
sg19
g18
sg20
S'/usr/share/fonts/truetype/freefont/FreeSerifBoldItalic.ttf'
p1733
sg22
g23
sbag7
(g8
g9
NtRp1734
(dp1735
g12
g38
sg14
S'Lato'
p1736
sg16
I900
sg17
g18
sg19
g18
sg20
S'/usr/share/fonts/truetype/lato/Lato-BlackItalic.ttf'
p1737
sg22
g23
sbag7
(g8
g9
NtRp1738
(dp1739
g12
g18
sg14
S'Lato'
p1740
sg16
I200
sg17
g18
sg19
g18
sg20
S'/usr/share/fonts/truetype/lato/Lato-Light.ttf'
p1741
sg22
g23
sbag7
(g8
g9
NtRp1742
(dp1743
g12
g18
sg14
S'Latin Modern Sans'
p1744
sg16
I400
sg17
g18
sg19
g18
sg20
S'/usr/share/texmf/fonts/opentype/public/lm/lmsans8-regular.otf'
p1745
sg22
g23
sbag7
(g8
g9
NtRp1746
(dp1747
g12
g18
sg14
S'STIXSizeThreeSym'
p1748
sg16
I700
sg17
g18
sg19
g18
sg20
S'/usr/share/fonts/opentype/stix/STIXSizeThreeSym-Bold.otf'
p1749
sg22
g23
sbag7
(g8
g9
NtRp1750
(dp1751
g12
g18
sg14
S'EB Garamond Initials Fill2'
p1752
sg16
I400
sg17
g18
sg19
g18
sg20
S'/usr/share/fonts/opentype/ebgaramond/EBGaramond-InitialsF2.otf'
p1753
sg22
g23
sbag7
(g8
g9
NtRp1754
(dp1755
g12
g38
sg14
S'STIX'
p1756
sg16
I700
sg17
g18
sg19
g18
sg20
S'/usr/share/fonts/opentype/stix-word/STIX-BoldItalic.otf'
p1757
sg22
g23
sbag7
(g8
g9
NtRp1758
(dp1759
g12
g18
sg14
S'TeX Gyre Termes Math'
p1760
sg16
I400
sg17
g18
sg19
g18
sg20
S'/usr/share/texmf/fonts/opentype/public/tex-gyre-math/texgyretermes-math.otf'
p1761
sg22
g23
sbag7
(g8
g9
NtRp1762
(dp1763
g12
g18
sg14
S'Droid Sans'
p1764
sg16
I700
sg17
g18
sg19
g18
sg20
S'/usr/share/fonts/truetype/droid/DroidSans-Bold.ttf'
p1765
sg22
g23
sbag7
(g8
g9
NtRp1766
(dp1767
g12
g18
sg14
S'GFS Neohellenic'
p1768
sg16
I400
sg17
g18
sg19
g18
sg20
S'/usr/share/fonts/truetype/neohellenic/GFSNeohellenic.otf'
p1769
sg22
g23
sbag7
(g8
g9
NtRp1770
(dp1771
g12
g38
sg14
S'Lobster Two'
p1772
sg16
I400
sg17
g18
sg19
g18
sg20
S'/usr/share/fonts/opentype/lobstertwo/LobsterTwo-Italic.otf'
p1773
sg22
g23
sbag7
(g8
g9
NtRp1774
(dp1775
g12
g18
sg14
S'Latin Modern Roman Unslanted'
p1776
sg16
I400
sg17
g18
sg19
g18
sg20
S'/usr/share/texmf/fonts/opentype/public/lm/lmromanunsl10-regular.otf'
p1777
sg22
g23
sbag7
(g8
g9
NtRp1778
(dp1779
g12
g13
sg14
S'Latin Modern Sans'
p1780
sg16
I400
sg17
g18
sg19
g18
sg20
S'/usr/share/texmf/fonts/opentype/public/lm/lmsans9-oblique.otf'
p1781
sg22
g23
sbag7
(g8
g9
NtRp1782
(dp1783
g12
g18
sg14
S'Gillius ADF No2'
p1784
sg16
I400
sg17
g18
sg19
g18
sg20
S'/usr/share/fonts/truetype/adf/GilliusADFNo2-Regular.otf'
p1785
sg22
g23
sbag7
(g8
g9
NtRp1786
(dp1787
g12
g38
sg14
S'Lato'
p1788
sg16
I700
sg17
g18
sg19
g18
sg20
S'/usr/share/fonts/truetype/lato/Lato-SemiboldItalic.ttf'
p1789
sg22
g23
sbag7
(g8
g9
NtRp1790
(dp1791
g12
g18
sg14
S'GFS Didot Classic'
p1792
sg16
I400
sg17
g18
sg19
g18
sg20
S'/usr/share/fonts/truetype/didot-classic/GFSDidotClassic.otf'
p1793
sg22
g23
sbag7
(g8
g9
NtRp1794
(dp1795
g12
g38
sg14
S'Linux Biolinum O'
p1796
sg16
I400
sg17
g18
sg19
g18
sg20
S'/usr/share/fonts/opentype/linux-libertine/LinBiolinum_RI.otf'
p1797
sg22
g23
sbag7
(g8
g9
NtRp1798
(dp1799
g12
g18
sg14
S'TeX Gyre Bonum'
p1800
sg16
I400
sg17
g18
sg19
g18
sg20
S'/usr/share/texmf/fonts/opentype/public/tex-gyre/texgyrebonum-regular.otf'
p1801
sg22
g23
sbag7
(g8
g9
NtRp1802
(dp1803
g12
g13
sg14
S'FreeSans'
p1804
sg16
I700
sg17
g18
sg19
g18
sg20
S'/usr/share/fonts/opentype/freefont/FreeSansBoldOblique.otf'
p1805
sg22
g23
sbag7
(g8
g9
NtRp1806
(dp1807
g12
g38
sg14
S'FreeSerif'
p1808
sg16
I700
sg17
g18
sg19
g18
sg20
S'/usr/share/fonts/opentype/freefont/FreeSerifBoldItalic.otf'
p1809
sg22
g23
sbag7
(g8
g9
NtRp1810
(dp1811
g12
g18
sg14
S'STIXIntegralsUpD'
p1812
sg16
I700
sg17
g18
sg19
g18
sg20
S'/usr/share/fonts/opentype/stix/STIXIntegralsUpD-Bold.otf'
p1813
sg22
g23
sbag7
(g8
g9
NtRp1814
(dp1815
g12
g18
sg14
S'EB Garamond'
p1816
sg16
I400
sg17
g18
sg19
g18
sg20
S'/usr/share/fonts/truetype/ebgaramond/EBGaramond08-SC.ttf'
p1817
sg22
g23
sbag7
(g8
g9
NtRp1818
(dp1819
g12
g18
sg14
S'MathJax_Caligraphic'
p1820
sg16
I700
sg17
g18
sg19
g18
sg20
S'/usr/share/fonts/opentype/mathjax/MathJax_Caligraphic-Bold.otf'
p1821
sg22
g23
sbag7
(g8
g9
NtRp1822
(dp1823
g12
g13
sg14
S'Latin Modern Sans'
p1824
sg16
I400
sg17
g18
sg19
g18
sg20
S'/usr/share/texmf/fonts/opentype/public/lm/lmsans17-oblique.otf'
p1825
sg22
g23
sbag7
(g8
g9
NtRp1826
(dp1827
g12
g18
sg14
S'FreeMono'
p1828
sg16
I700
sg17
g18
sg19
g18
sg20
S'/usr/share/fonts/opentype/freefont/FreeMonoBold.otf'
p1829
sg22
g23
sbag7
(g8
g9
NtRp1830
(dp1831
g12
g38
sg14
S'MathJax_Math'
p1832
sg16
I700
sg17
g18
sg19
g18
sg20
S'/usr/share/fonts/opentype/mathjax/MathJax_Math-BoldItalic.otf'
p1833
sg22
g23
sbag7
(g8
g9
NtRp1834
(dp1835
g12
g18
sg14
S'Droid Sans Hebrew'
p1836
sg16
I400
sg17
g18
sg19
g18
sg20
S'/usr/share/fonts/truetype/droid/DroidSansHebrew-Regular.ttf'
p1837
sg22
g23
sbasS'defaultFamily'
p1838
(dp1839
S'afm'
p1840
S'Helvetica'
p1841
sS'ttf'
p1842
S'Bitstream Vera Sans'
p1843
ssS'ttffiles'
p1844
(lp1845
S'/projects/sage/sage-6.7/local/lib/python2.7/site-packages/matplotlib-1.3.1-py2.7-linux-x86_64.egg/matplotlib/mpl-data/fonts/ttf/VeraMoBI.ttf'
p1846
aS'/projects/sage/sage-6.7/local/lib/python2.7/site-packages/matplotlib-1.3.1-py2.7-linux-x86_64.egg/matplotlib/mpl-data/fonts/ttf/cmb10.ttf'
p1847
aS'/projects/sage/sage-6.7/local/lib/python2.7/site-packages/matplotlib-1.3.1-py2.7-linux-x86_64.egg/matplotlib/mpl-data/fonts/ttf/STIXSizFourSymBol.ttf'
p1848
aS'/projects/sage/sage-6.7/local/lib/python2.7/site-packages/matplotlib-1.3.1-py2.7-linux-x86_64.egg/matplotlib/mpl-data/fonts/ttf/VeraMoBd.ttf'
p1849
aS'/projects/sage/sage-6.7/local/lib/python2.7/site-packages/matplotlib-1.3.1-py2.7-linux-x86_64.egg/matplotlib/mpl-data/fonts/ttf/STIXNonUniIta.ttf'
p1850
aS'/projects/sage/sage-6.7/local/lib/python2.7/site-packages/matplotlib-1.3.1-py2.7-linux-x86_64.egg/matplotlib/mpl-data/fonts/ttf/cmsy10.ttf'
p1851
aS'/projects/sage/sage-6.7/local/lib/python2.7/site-packages/matplotlib-1.3.1-py2.7-linux-x86_64.egg/matplotlib/mpl-data/fonts/ttf/cmex10.ttf'
p1852
aS'/projects/sage/sage-6.7/local/lib/python2.7/site-packages/matplotlib-1.3.1-py2.7-linux-x86_64.egg/matplotlib/mpl-data/fonts/ttf/VeraMoIt.ttf'
p1853
aS'/projects/sage/sage-6.7/local/lib/python2.7/site-packages/matplotlib-1.3.1-py2.7-linux-x86_64.egg/matplotlib/mpl-data/fonts/ttf/STIXSizOneSymBol.ttf'
p1854
aS'/projects/sage/sage-6.7/local/lib/python2.7/site-packages/matplotlib-1.3.1-py2.7-linux-x86_64.egg/matplotlib/mpl-data/fonts/ttf/STIXNonUniBolIta.ttf'
p1855
aS'/projects/sage/sage-6.7/local/lib/python2.7/site-packages/matplotlib-1.3.1-py2.7-linux-x86_64.egg/matplotlib/mpl-data/fonts/ttf/VeraBI.ttf'
p1856
aS'/projects/sage/sage-6.7/local/lib/python2.7/site-packages/matplotlib-1.3.1-py2.7-linux-x86_64.egg/matplotlib/mpl-data/fonts/ttf/STIXSizFourSymReg.ttf'
p1857
aS'/projects/sage/sage-6.7/local/lib/python2.7/site-packages/matplotlib-1.3.1-py2.7-linux-x86_64.egg/matplotlib/mpl-data/fonts/ttf/VeraMono.ttf'
p1858
aS'/projects/sage/sage-6.7/local/lib/python2.7/site-packages/matplotlib-1.3.1-py2.7-linux-x86_64.egg/matplotlib/mpl-data/fonts/ttf/STIXGeneralBolIta.ttf'
p1859
aS'/projects/sage/sage-6.7/local/lib/python2.7/site-packages/matplotlib-1.3.1-py2.7-linux-x86_64.egg/matplotlib/mpl-data/fonts/ttf/cmtt10.ttf'
p1860
aS'/projects/sage/sage-6.7/local/lib/python2.7/site-packages/matplotlib-1.3.1-py2.7-linux-x86_64.egg/matplotlib/mpl-data/fonts/ttf/VeraIt.ttf'
p1861
aS'/projects/sage/sage-6.7/local/lib/python2.7/site-packages/matplotlib-1.3.1-py2.7-linux-x86_64.egg/matplotlib/mpl-data/fonts/ttf/STIXSizThreeSymBol.ttf'
p1862
aS'/projects/sage/sage-6.7/local/lib/python2.7/site-packages/matplotlib-1.3.1-py2.7-linux-x86_64.egg/matplotlib/mpl-data/fonts/ttf/STIXSizOneSymReg.ttf'
p1863
aS'/projects/sage/sage-6.7/local/lib/python2.7/site-packages/matplotlib-1.3.1-py2.7-linux-x86_64.egg/matplotlib/mpl-data/fonts/ttf/STIXGeneralBol.ttf'
p1864
aS'/projects/sage/sage-6.7/local/lib/python2.7/site-packages/matplotlib-1.3.1-py2.7-linux-x86_64.egg/matplotlib/mpl-data/fonts/ttf/cmr10.ttf'
p1865
aS'/projects/sage/sage-6.7/local/lib/python2.7/site-packages/matplotlib-1.3.1-py2.7-linux-x86_64.egg/matplotlib/mpl-data/fonts/ttf/VeraSe.ttf'
p1866
aS'/projects/sage/sage-6.7/local/lib/python2.7/site-packages/matplotlib-1.3.1-py2.7-linux-x86_64.egg/matplotlib/mpl-data/fonts/ttf/STIXSizThreeSymReg.ttf'
p1867
aS'/projects/sage/sage-6.7/local/lib/python2.7/site-packages/matplotlib-1.3.1-py2.7-linux-x86_64.egg/matplotlib/mpl-data/fonts/ttf/Vera.ttf'
p1868
aS'/projects/sage/sage-6.7/local/lib/python2.7/site-packages/matplotlib-1.3.1-py2.7-linux-x86_64.egg/matplotlib/mpl-data/fonts/ttf/STIXNonUni.ttf'
p1869
aS'/projects/sage/sage-6.7/local/lib/python2.7/site-packages/matplotlib-1.3.1-py2.7-linux-x86_64.egg/matplotlib/mpl-data/fonts/ttf/cmss10.ttf'
p1870
aS'/projects/sage/sage-6.7/local/lib/python2.7/site-packages/matplotlib-1.3.1-py2.7-linux-x86_64.egg/matplotlib/mpl-data/fonts/ttf/STIXNonUniBol.ttf'
p1871
aS'/projects/sage/sage-6.7/local/lib/python2.7/site-packages/matplotlib-1.3.1-py2.7-linux-x86_64.egg/matplotlib/mpl-data/fonts/ttf/VeraBd.ttf'
p1872
aS'/projects/sage/sage-6.7/local/lib/python2.7/site-packages/matplotlib-1.3.1-py2.7-linux-x86_64.egg/matplotlib/mpl-data/fonts/ttf/STIXGeneral.ttf'
p1873
aS'/projects/sage/sage-6.7/local/lib/python2.7/site-packages/matplotlib-1.3.1-py2.7-linux-x86_64.egg/matplotlib/mpl-data/fonts/ttf/VeraSeBd.ttf'
p1874
aS'/projects/sage/sage-6.7/local/lib/python2.7/site-packages/matplotlib-1.3.1-py2.7-linux-x86_64.egg/matplotlib/mpl-data/fonts/ttf/STIXSizTwoSymBol.ttf'
p1875
aS'/projects/sage/sage-6.7/local/lib/python2.7/site-packages/matplotlib-1.3.1-py2.7-linux-x86_64.egg/matplotlib/mpl-data/fonts/ttf/cmmi10.ttf'
p1876
aS'/projects/sage/sage-6.7/local/lib/python2.7/site-packages/matplotlib-1.3.1-py2.7-linux-x86_64.egg/matplotlib/mpl-data/fonts/ttf/STIXSizFiveSymReg.ttf'
p1877
aS'/projects/sage/sage-6.7/local/lib/python2.7/site-packages/matplotlib-1.3.1-py2.7-linux-x86_64.egg/matplotlib/mpl-data/fonts/ttf/STIXGeneralItalic.ttf'
p1878
aS'/projects/sage/sage-6.7/local/lib/python2.7/site-packages/matplotlib-1.3.1-py2.7-linux-x86_64.egg/matplotlib/mpl-data/fonts/ttf/STIXSizTwoSymReg.ttf'
p1879
aS'/usr/share/fonts/truetype/lato/Lato-Hairline.ttf'
p1880
aS'/usr/share/fonts/opentype/stix/STIXIntegralsUp-Regular.otf'
p1881
aS'/usr/share/fonts/truetype/droid/DroidSansEthiopic-Bold.ttf'
p1882
aS'/usr/share/texmf/fonts/opentype/public/lm/lmroman8-italic.otf'
p1883
aS'/usr/share/texmf/fonts/opentype/public/lm/lmmonocaps10-regular.otf'
p1884
aS'/usr/share/fonts/truetype/inconsolata/Inconsolata.otf'
p1885
aS'/usr/share/fonts/truetype/adf/GilliusADFCd-Regular.otf'
p1886
aS'/usr/share/fonts/truetype/adf/UniversalisADFCdStd-BdOblique.otf'
p1887
aS'/usr/share/fonts/truetype/gentium-basic/GenBasI.ttf'
p1888
aS'/usr/share/fonts/opentype/ebgaramond/EBGaramond08-Regular.otf'
p1889
aS'/usr/share/texmf/fonts/opentype/public/lm/lmroman10-italic.otf'
p1890
aS'/usr/share/fonts/truetype/junicode/Junicode.ttf'
p1891
aS'/usr/share/fonts/truetype/gentium-basic/GenBkBasBI.ttf'
p1892
aS'/usr/share/fonts/truetype/fonts-japanese-gothic.ttf'
p1893
aS'/usr/share/fonts/truetype/gentium-basic/GenBkBasR.ttf'
p1894
aS'/usr/share/fonts/opentype/fonts-hosny-amiri/amiri-boldslanted.ttf'
p1895
aS'/usr/share/fonts/opentype/linux-libertine/LinLibertine_RZ.otf'
p1896
aS'/usr/share/fonts/truetype/asana-math/Asana-Math.otf'
p1897
aS'/usr/share/fonts/opentype/mathjax/MathJax_Main-Italic.otf'
p1898
aS'/usr/share/fonts/truetype/adf/AccanthisADFStdNo2-Bold.otf'
p1899
aS'/usr/share/fonts/truetype/didot/GFSDidotBoldItalic.otf'
p1900
aS'/usr/share/texmf/fonts/opentype/public/tex-gyre/texgyretermes-bolditalic.otf'
p1901
aS'/usr/share/fonts/truetype/lyx/cmmi10.ttf'
p1902
aS'/usr/share/texmf/fonts/opentype/public/lm/lmmono10-regular.otf'
p1903
aS'/usr/share/fonts/truetype/lato/Lato-MediumItalic.ttf'
p1904
aS'/usr/share/fonts/truetype/olga/GFSOlga.otf'
p1905
aS'/usr/share/texmf/fonts/opentype/public/tex-gyre-math/texgyreschola-math.otf'
p1906
aS'/usr/share/fonts/truetype/dejavu/DejaVuSerifCondensed-Bold.ttf'
p1907
aS'/usr/share/fonts/opentype/ebgaramond/EBGaramond12-Italic.otf'
p1908
aS'/usr/share/fonts/opentype/stix/STIXSizeFourSym-Bold.otf'
p1909
aS'/usr/share/fonts/truetype/adf/GilliusADFNo2Cd-Bold.otf'
p1910
aS'/usr/share/fonts/truetype/lato/Lato-Medium.ttf'
p1911
aS'/usr/share/texmf/fonts/opentype/public/lm/lmroman12-regular.otf'
p1912
aS'/usr/share/fonts/opentype/fonts-hosny-amiri/amiri-slanted.ttf'
p1913
aS'/usr/share/fonts/truetype/artemisia/GFSArtemisiaBold.otf'
p1914
aS'/usr/share/fonts/truetype/gentium-basic/GenBasR.ttf'
p1915
aS'/usr/share/fonts/truetype/droid/DroidNaskh-Regular.ttf'
p1916
aS'/usr/share/fonts/truetype/gentium/GenI102.ttf'
p1917
aS'/usr/share/fonts/truetype/comfortaa/Comfortaa-Light.ttf'
p1918
aS'/usr/share/fonts/truetype/liberation/LiberationSans-Italic.ttf'
p1919
aS'/usr/share/fonts/truetype/dejavu/DejaVuSansMono-Oblique.ttf'
p1920
aS'/usr/share/fonts/opentype/stix/STIXIntegralsUp-Bold.otf'
p1921
aS'/usr/share/texmf/fonts/opentype/public/lm/lmroman12-bold.otf'
p1922
aS'/usr/share/texmf/fonts/opentype/public/tex-gyre/texgyrecursor-regular.otf'
p1923
aS'/usr/share/fonts/truetype/font-awesome/fontawesome-webfont.ttf'
p1924
aS'/usr/share/fonts/truetype/droid/DroidSansHebrew-Bold.ttf'
p1925
aS'/usr/share/fonts/opentype/cabin/Cabin-Medium.otf'
p1926
aS'/usr/share/fonts/truetype/droid/DroidNaskh-Bold.ttf'
p1927
aS'/usr/share/fonts/truetype/ttf-liberation/LiberationSerif-Bold.ttf'
p1928
aS'/usr/share/fonts/truetype/droid/DroidSerif-Regular.ttf'
p1929
aS'/usr/share/texmf/fonts/opentype/public/lm/lmroman5-regular.otf'
p1930
aS'/usr/share/texmf/fonts/opentype/public/lm/lmromanslant12-regular.otf'
p1931
aS'/usr/share/fonts/opentype/freefont/FreeSerifBold.otf'
p1932
aS'/usr/share/texmf/fonts/opentype/public/lm/lmmono10-italic.otf'
p1933
aS'/usr/share/fonts/opentype/freefont/FreeSans.otf'
p1934
aS'/usr/share/fonts/opentype/mathjax/MathJax_Fraktur-Bold.otf'
p1935
aS'/usr/share/fonts/truetype/dejavu/DejaVuSansMono-BoldOblique.ttf'
p1936
aS'/usr/share/fonts/truetype/freefont/FreeSansBold.ttf'
p1937
aS'/usr/share/texmf/fonts/opentype/public/tex-gyre/texgyreheroscn-regular.otf'
p1938
aS'/usr/share/texmf/fonts/opentype/public/lm/lmmono8-regular.otf'
p1939
aS'/usr/share/texmf/fonts/opentype/public/lm/lmsans10-bold.otf'
p1940
aS'/usr/share/fonts/truetype/droid/DroidKufi-Bold.ttf'
p1941
aS'/usr/share/texmf/fonts/opentype/public/lm/lmmonoprop10-oblique.otf'
p1942
aS'/usr/share/fonts/opentype/stix/STIXSizeOneSym-Bold.otf'
p1943
aS'/usr/share/fonts/truetype/adf/AccanthisADFStdNo3-Italic.otf'
p1944
aS'/usr/share/fonts/truetype/adf/UniversalisADFCdStd-Regular.otf'
p1945
aS'/usr/share/fonts/truetype/droid/DroidSansMono.ttf'
p1946
aS'/usr/share/fonts/opentype/freefont/FreeSerif.otf'
p1947
aS'/usr/share/fonts/opentype/stix/STIXIntegralsSm-Bold.otf'
p1948
aS'/usr/share/fonts/truetype/liberation/LiberationMono-BoldItalic.ttf'
p1949
aS'/usr/share/fonts/truetype/ebgaramond/EBGaramond12-Regular.ttf'
p1950
aS'/usr/share/fonts/opentype/ipafont-gothic/ipag.ttf'
p1951
aS'/usr/share/fonts/truetype/lyx/cmsy10.ttf'
p1952
aS'/usr/share/texmf/fonts/opentype/public/tex-gyre/texgyrebonum-bold.otf'
p1953
aS'/usr/share/fonts/opentype/cabin/Cabin-Bold.otf'
p1954
aS'/usr/share/fonts/truetype/crosextra/Caladea-Italic.ttf'
p1955
aS'/usr/share/fonts/truetype/droid/DroidSansFallbackFull.ttf'
p1956
aS'/usr/share/fonts/truetype/dejavu/DejaVuSerif-BoldItalic.ttf'
p1957
aS'/usr/share/texmf/fonts/opentype/public/lm/lmmonoproplt10-bold.otf'
p1958
aS'/usr/share/fonts/opentype/freefont/FreeSansBold.otf'
p1959
aS'/usr/share/fonts/truetype/dejavu/DejaVuSerif.ttf'
p1960
aS'/usr/share/texmf/fonts/opentype/public/lm/lmroman12-italic.otf'
p1961
aS'/usr/share/texmf/fonts/opentype/public/tex-gyre-math/texgyrebonum-math.otf'
p1962
aS'/usr/share/texmf/fonts/opentype/public/lm/lmsans12-regular.otf'
p1963
aS'/usr/share/fonts/truetype/dejavu/DejaVuSans-Bold.ttf'
p1964
aS'/usr/share/fonts/truetype/ttf-liberation/LiberationSerif-Regular.ttf'
p1965
aS'/usr/share/texmf/fonts/opentype/public/lm/lmroman7-italic.otf'
p1966
aS'/usr/share/texmf/fonts/opentype/public/lm-math/latinmodernmath-regular.otf'
p1967
aS'/usr/share/texmf/fonts/opentype/public/lm/lmroman9-italic.otf'
p1968
aS'/usr/share/fonts/opentype/mathjax/MathJax_WinChrome-Regular.otf'
p1969
aS'/usr/share/fonts/opentype/mathjax/MathJax_SansSerif-Bold.otf'
p1970
aS'/usr/share/fonts/opentype/stix/STIXGeneral-Regular.otf'
p1971
aS'/usr/share/fonts/truetype/solomos/GFSSolomos.otf'
p1972
aS'/usr/share/fonts/opentype/stix-word/STIX-Regular.otf'
p1973
aS'/usr/share/fonts/opentype/lobstertwo/LobsterTwo-BoldItalic.otf'
p1974
aS'/usr/share/fonts/truetype/baskerville/GFSBaskerville.otf'
p1975
aS'/usr/share/fonts/opentype/ebgaramond/EBGaramond-InitialsF1.otf'
p1976
aS'/usr/share/fonts/opentype/stix/STIXIntegralsD-Regular.otf'
p1977
aS'/usr/share/fonts/truetype/junicode/Junicode-Bold.ttf'
p1978
aS'/usr/share/texmf/fonts/opentype/public/tex-gyre/texgyrepagella-regular.otf'
p1979
aS'/usr/share/texmf/fonts/opentype/public/lm/lmroman8-bold.otf'
p1980
aS'/usr/share/fonts/truetype/didot/GFSDidotItalic.otf'
p1981
aS'/usr/share/texmf/fonts/opentype/public/tex-gyre/texgyrepagella-italic.otf'
p1982
aS'/usr/share/fonts/opentype/fonts-hosny-amiri/amiri-bold.ttf'
p1983
aS'/usr/share/fonts/truetype/ebgaramond/EBGaramond-InitialsF1.ttf'
p1984
aS'/usr/share/fonts/opentype/stix/STIXSizeOneSym-Regular.otf'
p1985
aS'/usr/share/fonts/opentype/stix-word/STIXMath-Regular.otf'
p1986
aS'/usr/share/fonts/truetype/lyx/stmary10.ttf'
p1987
aS'/usr/share/fonts/truetype/adf/GilliusADFNo2Cd-Regular.otf'
p1988
aS'/usr/share/fonts/truetype/ocr-a/OCRA.ttf'
p1989
aS'/usr/share/fonts/opentype/stix-word/STIX-Italic.otf'
p1990
aS'/usr/share/texmf/fonts/opentype/public/lm/lmsansdemicond10-regular.otf'
p1991
aS'/usr/share/fonts/truetype/dejavu/DejaVuSansCondensed-Bold.ttf'
p1992
aS'/usr/share/fonts/truetype/neohellenic/GFSNeohellenicBoldIt.otf'
p1993
aS'/usr/share/fonts/truetype/adf/GilliusADF-Italic.otf'
p1994
aS'/usr/share/texmf/fonts/opentype/public/tex-gyre/texgyreheroscn-bold.otf'
p1995
aS'/usr/share/texmf/fonts/opentype/public/lm/lmmonoproplt10-boldoblique.otf'
p1996
aS'/usr/share/fonts/truetype/adf/UniversalisADFCdStd-Bold.otf'
p1997
aS'/usr/share/fonts/opentype/fonts-hosny-amiri/amiri-regular.ttf'
p1998
aS'/usr/share/fonts/truetype/ttf-liberation/LiberationSans-Italic.ttf'
p1999
aS'/usr/share/fonts/opentype/freefont/FreeSansOblique.otf'
p2000
aS'/usr/share/fonts/opentype/linux-libertine/LinLibertine_RZI.otf'
p2001
aS'/usr/share/fonts/truetype/liberation/LiberationSansNarrow-Bold.ttf'
p2002
aS'/usr/share/fonts/truetype/droid/DroidSansArmenian.ttf'
p2003
aS'/usr/share/fonts/opentype/linux-libertine/LinLibertine_R.otf'
p2004
aS'/usr/share/fonts/truetype/dejavu/DejaVuSansMono-Bold.ttf'
p2005
aS'/usr/share/fonts/truetype/lato/Lato-Regular.ttf'
p2006
aS'/usr/share/fonts/truetype/dejavu/DejaVuSansCondensed-Oblique.ttf'
p2007
aS'/usr/share/fonts/opentype/ebgaramond/EBGaramond-Initials.otf'
p2008
aS'/usr/share/fonts/truetype/adf/UniversalisADFStd-Oblique.otf'
p2009
aS'/usr/share/fonts/opentype/mathjax/MathJax_Size4-Regular.otf'
p2010
aS'/usr/share/texmf/fonts/opentype/public/tex-gyre/texgyrebonum-bolditalic.otf'
p2011
aS'/usr/share/fonts/truetype/lato/Lato-HeavyItalic.ttf'
p2012
aS'/usr/share/fonts/truetype/liberation/LiberationMono-Italic.ttf'
p2013
aS'/usr/share/fonts/truetype/droid/DroidNaskhUI-Regular.ttf'
p2014
aS'/usr/share/fonts/truetype/liberation/LiberationSerif-BoldItalic.ttf'
p2015
aS'/usr/share/texmf/fonts/opentype/public/tex-gyre/texgyrepagella-bolditalic.otf'
p2016
aS'/usr/share/texmf/fonts/opentype/public/lm/lmromanslant8-regular.otf'
p2017
aS'/usr/share/fonts/truetype/liberation/LiberationSerif-Bold.ttf'
p2018
aS'/usr/share/fonts/opentype/stix/STIXGeneral-BoldItalic.otf'
p2019
aS'/usr/share/fonts/truetype/adf/UniversalisADFStd-Bold.otf'
p2020
aS'/usr/share/fonts/truetype/lato/Lato-BoldItalic.ttf'
p2021
aS'/usr/share/texmf/fonts/opentype/public/lm/lmmonolt10-boldoblique.otf'
p2022
aS'/usr/share/fonts/truetype/dejavu/DejaVuSerifCondensed.ttf'
p2023
aS'/usr/share/fonts/opentype/linux-libertine/LinBiolinum_RB.otf'
p2024
aS'/usr/share/fonts/truetype/ttf-liberation/LiberationSerif-Italic.ttf'
p2025
aS'/usr/share/texmf/fonts/opentype/public/lm/lmroman6-bold.otf'
p2026
aS'/usr/share/texmf/fonts/opentype/public/tex-gyre/texgyretermes-italic.otf'
p2027
aS'/usr/share/fonts/truetype/ebgaramond/EBGaramond08-Regular.ttf'
p2028
aS'/usr/share/fonts/opentype/freefont/FreeMonoBoldOblique.otf'
p2029
aS'/usr/share/texmf/fonts/opentype/public/lm/lmmonoprop10-regular.otf'
p2030
aS'/usr/share/texmf/fonts/opentype/public/tex-gyre/texgyreheros-italic.otf'
p2031
aS'/usr/share/texmf/fonts/opentype/public/tex-gyre/texgyreheroscn-bolditalic.otf'
p2032
aS'/usr/share/texmf/fonts/opentype/public/tex-gyre/texgyreschola-bolditalic.otf'
p2033
aS'/usr/share/texmf/fonts/opentype/public/lm/lmsansquot8-bold.otf'
p2034
aS'/usr/share/fonts/truetype/adf/GilliusADF-Bold.otf'
p2035
aS'/usr/share/texmf/fonts/opentype/public/lm/lmromanslant9-regular.otf'
p2036
aS'/usr/share/texmf/fonts/opentype/public/lm/lmmonoslant10-regular.otf'
p2037
aS'/usr/share/texmf/fonts/opentype/public/lm/lmsansquot8-boldoblique.otf'
p2038
aS'/usr/share/fonts/truetype/adf/GilliusADFNo2Cd-Italic.otf'
p2039
aS'/usr/share/fonts/truetype/freefont/FreeMonoBold.ttf'
p2040
aS'/usr/share/fonts/truetype/adf/AccanthisADFStd-Regular.otf'
p2041
aS'/usr/share/fonts/truetype/lato/Lato-Thin.ttf'
p2042
aS'/usr/share/fonts/truetype/droid/DroidSerif-BoldItalic.ttf'
p2043
aS'/usr/share/texmf/fonts/opentype/public/tex-gyre/texgyreheros-bold.otf'
p2044
aS'/usr/share/fonts/truetype/lyx/wasy10.ttf'
p2045
aS'/usr/share/fonts/truetype/porson/GFSPorson.otf'
p2046
aS'/usr/share/fonts/truetype/neohellenic/GFSNeohellenicBold.otf'
p2047
aS'/usr/share/fonts/truetype/comfortaa/Comfortaa-Regular.ttf'
p2048
aS'/usr/share/fonts/truetype/dejavu/DejaVuSansCondensed.ttf'
p2049
aS'/usr/share/fonts/opentype/stix/STIXNonUnicode-Italic.otf'
p2050
aS'/usr/share/fonts/truetype/comfortaa/Comfortaa-Bold.ttf'
p2051
aS'/usr/share/fonts/truetype/dejavu/DejaVuSansCondensed-BoldOblique.ttf'
p2052
aS'/usr/share/fonts/truetype/gentium/GenAI102.ttf'
p2053
aS'/usr/share/texmf/fonts/opentype/public/lm/lmroman8-regular.otf'
p2054
aS'/usr/share/fonts/opentype/ebgaramond/EBGaramond08-Italic.otf'
p2055
aS'/usr/share/fonts/truetype/droid/DroidSansArabic.ttf'
p2056
aS'/usr/share/fonts/truetype/freefont/FreeSansBoldOblique.ttf'
p2057
aS'/usr/share/texmf/fonts/opentype/public/lm/lmsans12-oblique.otf'
p2058
aS'/usr/share/fonts/truetype/lato/Lato-HairlineItalic.ttf'
p2059
aS'/usr/share/fonts/opentype/stix/STIXNonUnicode-Regular.otf'
p2060
aS'/usr/share/fonts/truetype/lato/Lato-Bold.ttf'
p2061
aS'/usr/share/fonts/opentype/cabin/Cabin-Regular.otf'
p2062
aS'/usr/share/fonts/truetype/freefont/FreeSans.ttf'
p2063
aS'/usr/share/fonts/truetype/dejavu/DejaVuSerif-Bold.ttf'
p2064
aS'/usr/share/fonts/truetype/liberation/LiberationSerif-Regular.ttf'
p2065
aS'/usr/share/fonts/truetype/ocr-a/OCRAItalic.ttf'
p2066
aS'/usr/share/texmf/fonts/opentype/public/tex-gyre/texgyreadventor-bolditalic.otf'
p2067
aS'/usr/share/fonts/truetype/adf/AccanthisADFStdNo2-BoldItalic.otf'
p2068
aS'/usr/share/texmf/fonts/opentype/public/tex-gyre/texgyreschola-italic.otf'
p2069
aS'/usr/share/fonts/truetype/artemisia/GFSArtemisiaBoldIt.otf'
p2070
aS'/usr/share/fonts/opentype/stix-word/STIX-Bold.otf'
p2071
aS'/usr/share/texmf/fonts/opentype/public/tex-gyre/texgyreheros-regular.otf'
p2072
aS'/usr/share/fonts/truetype/gentium-basic/GenBasBI.ttf'
p2073
aS'/usr/share/fonts/truetype/dejavu/DejaVuSans.ttf'
p2074
aS'/usr/share/fonts/truetype/ocr-a/OCRACondensed.ttf'
p2075
aS'/usr/share/fonts/opentype/linux-libertine/LinBiolinum_K.otf'
p2076
aS'/usr/share/fonts/opentype/ipafont-mincho/ipam.ttf'
p2077
aS'/usr/share/fonts/truetype/freefont/FreeMonoOblique.ttf'
p2078
aS'/usr/share/fonts/opentype/mathjax/MathJax_Size1-Regular.otf'
p2079
aS'/usr/share/fonts/opentype/stix/STIXNonUnicode-BoldItalic.otf'
p2080
aS'/usr/share/texmf/fonts/opentype/public/lm/lmromanslant10-bold.otf'
p2081
aS'/usr/share/fonts/truetype/adf/GilliusADF-Regular.otf'
p2082
aS'/usr/share/texmf/fonts/opentype/public/lm/lmsans9-regular.otf'
p2083
aS'/usr/share/fonts/truetype/lato/Lato-LightItalic.ttf'
p2084
aS'/usr/share/fonts/opentype/stix/STIXVariants-Bold.otf'
p2085
aS'/usr/share/texmf/fonts/opentype/public/lm/lmsansquot8-oblique.otf'
p2086
aS'/usr/share/fonts/truetype/lato/Lato-ThinItalic.ttf'
p2087
aS'/usr/share/texmf/fonts/opentype/public/lm/lmroman10-bolditalic.otf'
p2088
aS'/usr/share/fonts/opentype/stix/STIXIntegralsD-Bold.otf'
p2089
aS'/usr/share/texmf/fonts/opentype/public/tex-gyre/texgyrepagella-bold.otf'
p2090
aS'/usr/share/texmf/fonts/opentype/public/lm/lmmonoproplt10-regular.otf'
p2091
aS'/usr/share/fonts/truetype/bodoni-classic/GFSBodoniClassic.otf'
p2092
aS'/usr/share/fonts/truetype/adf/GilliusADFCd-Italic.otf'
p2093
aS'/usr/share/fonts/truetype/freefont/FreeMono.ttf'
p2094
aS'/usr/share/texmf/fonts/opentype/public/lm/lmmono9-regular.otf'
p2095
aS'/usr/share/fonts/truetype/adf/GilliusADFNo2Cd-BoldItalic.otf'
p2096
aS'/usr/share/fonts/opentype/stix/STIXIntegralsUpSm-Bold.otf'
p2097
aS'/usr/share/texmf/fonts/opentype/public/lm/lmroman10-bold.otf'
p2098
aS'/usr/share/fonts/opentype/linux-libertine/LinLibertine_I.otf'
p2099
aS'/usr/share/fonts/truetype/droid/DroidSansEthiopic-Regular.ttf'
p2100
aS'/usr/share/fonts/truetype/ttf-liberation/LiberationSans-Regular.ttf'
p2101
aS'/usr/share/fonts/truetype/ttf-liberation/LiberationSansNarrow-Regular.ttf'
p2102
aS'/usr/share/fonts/truetype/adf/GilliusADFNo2-BoldItalic.otf'
p2103
aS'/usr/share/texmf/fonts/opentype/public/lm/lmroman7-regular.otf'
p2104
aS'/usr/share/texmf/fonts/opentype/public/tex-gyre/texgyreheros-bolditalic.otf'
p2105
aS'/usr/share/fonts/truetype/ebgaramond/EBGaramond12-Italic.ttf'
p2106
aS'/usr/share/fonts/truetype/adf/GilliusADFNo2-Italic.otf'
p2107
aS'/usr/share/texmf/fonts/opentype/public/tex-gyre/texgyrecursor-bolditalic.otf'
p2108
aS'/usr/share/fonts/truetype/adf/AccanthisADFStdNo3-Regular.otf'
p2109
aS'/usr/share/fonts/truetype/adf/AccanthisADFStd-Italic.otf'
p2110
aS'/usr/share/fonts/truetype/liberation/LiberationMono-Bold.ttf'
p2111
aS'/usr/share/fonts/truetype/freefont/FreeSerifBold.ttf'
p2112
aS'/usr/share/fonts/truetype/lyx/msam10.ttf'
p2113
aS'/usr/share/texmf/fonts/opentype/public/tex-gyre/texgyretermes-regular.otf'
p2114
aS'/usr/share/fonts/opentype/font-awesome/FontAwesome.otf'
p2115
aS'/usr/share/fonts/truetype/dejavu/DejaVuSans-BoldOblique.ttf'
p2116
aS'/usr/share/fonts/opentype/mathjax/MathJax_Main-Regular.otf'
p2117
aS'/usr/share/fonts/truetype/ttf-liberation/LiberationSansNarrow-Italic.ttf'
p2118
aS'/usr/share/fonts/opentype/cabin/Cabin-Italic.otf'
p2119
aS'/usr/share/texmf/fonts/opentype/public/lm/lmromancaps10-regular.otf'
p2120
aS'/usr/share/fonts/truetype/lyx/msbm10.ttf'
p2121
aS'/usr/share/fonts/truetype/crosextra/Carlito-Italic.ttf'
p2122
aS'/usr/share/fonts/truetype/dejavu/DejaVuSerif-Italic.ttf'
p2123
aS'/usr/share/fonts/truetype/dejavu/DejaVuSerifCondensed-BoldItalic.ttf'
p2124
aS'/usr/share/fonts/truetype/crosextra/Caladea-Bold.ttf'
p2125
aS'/usr/share/fonts/truetype/adf/UniversalisADFCdStd-Oblique.otf'
p2126
aS'/usr/share/fonts/opentype/stix/STIXSizeTwoSym-Regular.otf'
p2127
aS'/usr/share/texmf/fonts/opentype/public/tex-gyre-math/texgyrepagella-math.otf'
p2128
aS'/usr/share/fonts/truetype/droid/DroidSans.ttf'
p2129
aS'/usr/share/texmf/fonts/opentype/public/tex-gyre/texgyreheroscn-italic.otf'
p2130
aS'/usr/share/fonts/truetype/neohellenic/GFSNeohellenicIt.otf'
p2131
aS'/usr/share/fonts/opentype/stix/STIXSizeFiveSym-Regular.otf'
p2132
aS'/usr/share/fonts/truetype/ebgaramond/EBGaramond-Initials.ttf'
p2133
aS'/usr/share/texmf/fonts/opentype/public/lm/lmmono12-regular.otf'
p2134
aS'/usr/share/fonts/opentype/mathjax/MathJax_AMS-Regular.otf'
p2135
aS'/usr/share/fonts/opentype/freefont/FreeSerifItalic.otf'
p2136
aS'/usr/share/fonts/truetype/liberation/LiberationSans-BoldItalic.ttf'
p2137
aS'/usr/share/fonts/truetype/ttf-liberation/LiberationSans-BoldItalic.ttf'
p2138
aS'/usr/share/texmf/fonts/opentype/public/tex-gyre/texgyreadventor-bold.otf'
p2139
aS'/usr/share/fonts/opentype/lobstertwo/LobsterTwo-Bold.otf'
p2140
aS'/usr/share/texmf/fonts/opentype/public/tex-gyre/texgyreadventor-regular.otf'
p2141
aS'/usr/share/texmf/fonts/opentype/public/lm/lmmonoltcond10-regular.otf'
p2142
aS'/usr/share/texmf/fonts/opentype/public/lm/lmromandemi10-regular.otf'
p2143
aS'/usr/share/fonts/opentype/mathjax/MathJax_Script-Regular.otf'
p2144
aS'/usr/share/fonts/truetype/lato/Lato-Black.ttf'
p2145
aS'/usr/share/fonts/truetype/theokritos/GFSTheokritos.otf'
p2146
aS'/usr/share/fonts/opentype/mathjax/MathJax_Caligraphic-Regular.otf'
p2147
aS'/usr/share/fonts/truetype/ocr-a/OCRABold.ttf'
p2148
aS'/usr/share/texmf/fonts/opentype/public/lm/lmsansdemicond10-oblique.otf'
p2149
aS'/usr/share/fonts/opentype/linux-libertine/LinLibertine_RB.otf'
p2150
aS'/usr/share/fonts/truetype/dejavu/DejaVuSans-ExtraLight.ttf'
p2151
aS'/usr/share/fonts/truetype/lato/Lato-Semibold.ttf'
p2152
aS'/usr/share/texmf/fonts/opentype/public/lm/lmromanslant17-regular.otf'
p2153
aS'/usr/share/texmf/fonts/opentype/public/tex-gyre/texgyrecursor-bold.otf'
p2154
aS'/usr/share/texmf/fonts/opentype/public/lm/lmmonoltcond10-oblique.otf'
p2155
aS'/usr/share/fonts/truetype/adf/AccanthisADFStdNo2-Regular.otf'
p2156
aS'/usr/share/fonts/opentype/mathjax/MathJax_Fraktur-Regular.otf'
p2157
aS'/usr/share/texmf/fonts/opentype/public/lm/lmroman7-bold.otf'
p2158
aS'/usr/share/fonts/truetype/ebgaramond/EBGaramond08-Italic.ttf'
p2159
aS'/usr/share/texmf/fonts/opentype/public/lm/lmroman9-bold.otf'
p2160
aS'/usr/share/fonts/opentype/ipafont-gothic/ipagp.ttf'
p2161
aS'/usr/share/fonts/truetype/artemisia/GFSArtemisiaIt.otf'
p2162
aS'/usr/share/fonts/opentype/stix/STIXSizeThreeSym-Regular.otf'
p2163
aS'/usr/share/fonts/truetype/didot/GFSDidotBold.otf'
p2164
aS'/usr/share/texmf/fonts/opentype/public/lm/lmsans8-oblique.otf'
p2165
aS'/usr/share/fonts/truetype/freefont/FreeMonoBoldOblique.ttf'
p2166
aS'/usr/share/fonts/truetype/adf/AccanthisADFStdNo3-BoldItalic.otf'
p2167
aS'/usr/share/fonts/truetype/adf/GilliusADFCd-BoldItalic.otf'
p2168
aS'/usr/share/texmf/fonts/opentype/public/tex-gyre/texgyreschola-bold.otf'
p2169
aS'/usr/share/fonts/opentype/mathjax/MathJax_Size2-Regular.otf'
p2170
aS'/usr/share/fonts/opentype/mathjax/MathJax_Size3-Regular.otf'
p2171
aS'/usr/share/fonts/truetype/gazis/GFSGazis.otf'
p2172
aS'/usr/share/fonts/opentype/fonts-hosny-amiri/amiri-quran.ttf'
p2173
aS'/usr/share/fonts/truetype/dejavu/DejaVuSerifCondensed-Italic.ttf'
p2174
aS'/usr/share/fonts/truetype/liberation/LiberationSansNarrow-BoldItalic.ttf'
p2175
aS'/usr/share/texmf/fonts/opentype/public/lm/lmromandunh10-regular.otf'
p2176
aS'/usr/share/fonts/truetype/didot/GFSDidot.otf'
p2177
aS'/usr/share/fonts/truetype/liberation/LiberationSans-Regular.ttf'
p2178
aS'/usr/share/texmf/fonts/opentype/public/lm/lmsans17-regular.otf'
p2179
aS'/usr/share/fonts/opentype/stix/STIXSizeTwoSym-Bold.otf'
p2180
aS'/usr/share/fonts/opentype/mathjax/MathJax_Main-Bold.otf'
p2181
aS'/usr/share/fonts/opentype/ipaexfont-mincho/ipaexm.ttf'
p2182
aS'/usr/share/fonts/opentype/ebgaramond/EBGaramond12-Regular.otf'
p2183
aS'/usr/share/fonts/opentype/lobster/lobster.otf'
p2184
aS'/usr/share/fonts/truetype/droid/DroidKufi-Regular.ttf'
p2185
aS'/usr/share/fonts/opentype/ipaexfont-gothic/ipaexg.ttf'
p2186
aS'/usr/share/fonts/truetype/crosextra/Carlito-BoldItalic.ttf'
p2187
aS'/usr/share/fonts/truetype/gentium-basic/GenBkBasI.ttf'
p2188
aS'/usr/share/fonts/truetype/dejavu/DejaVuSans-Oblique.ttf'
p2189
aS'/usr/share/texmf/fonts/opentype/public/tex-gyre/texgyrechorus-mediumitalic.otf'
p2190
aS'/usr/share/fonts/truetype/freefont/FreeSerif.ttf'
p2191
aS'/usr/share/texmf/fonts/opentype/public/lm/lmromanslant10-regular.otf'
p2192
aS'/usr/share/fonts/opentype/stix/STIXGeneral-Italic.otf'
p2193
aS'/usr/share/fonts/truetype/droid/DroidSansJapanese.ttf'
p2194
aS'/usr/share/fonts/truetype/ttf-liberation/LiberationSerif-BoldItalic.ttf'
p2195
aS'/usr/share/fonts/opentype/stix/STIXIntegralsSm-Regular.otf'
p2196
aS'/usr/share/fonts/truetype/lyx/cmex10.ttf'
p2197
aS'/usr/share/texmf/fonts/opentype/public/lm/lmsans10-boldoblique.otf'
p2198
aS'/usr/share/fonts/truetype/adf/AccanthisADFStd-Bold.otf'
p2199
aS'/usr/share/fonts/opentype/linux-libertine/LinLibertine_M.otf'
p2200
aS'/usr/share/fonts/truetype/adf/UniversalisADFStd-BoldOblique.otf'
p2201
aS'/usr/share/fonts/opentype/stix/STIXGeneral-Bold.otf'
p2202
aS'/usr/share/fonts/truetype/complutum/GFSPolyglot.otf'
p2203
aS'/usr/share/fonts/opentype/stix/STIXSizeFourSym-Regular.otf'
p2204
aS'/usr/share/fonts/truetype/crosextra/Carlito-Bold.ttf'
p2205
aS'/usr/share/fonts/opentype/linux-libertine/LinLibertine_RBI.otf'
p2206
aS'/usr/share/fonts/opentype/ipafont-mincho/ipamp.ttf'
p2207
aS'/usr/share/fonts/truetype/freefont/FreeSerifItalic.ttf'
p2208
aS'/usr/share/fonts/opentype/cabin/Cabin-BoldItalic.otf'
p2209
aS'/usr/share/texmf/fonts/opentype/public/lm/lmromancaps10-oblique.otf'
p2210
aS'/usr/share/fonts/truetype/crosextra/Caladea-BoldItalic.ttf'
p2211
aS'/usr/share/texmf/fonts/opentype/public/tex-gyre/texgyreadventor-italic.otf'
p2212
aS'/usr/share/fonts/truetype/ebgaramond/EBGaramond-InitialsF2.ttf'
p2213
aS'/usr/share/fonts/truetype/liberation/LiberationSansNarrow-Italic.ttf'
p2214
aS'/usr/share/fonts/truetype/lyx/cmr10.ttf'
p2215
aS'/usr/share/texmf/fonts/opentype/public/tex-gyre/texgyrecursor-italic.otf'
p2216
aS'/usr/share/fonts/truetype/adf/AccanthisADFStdNo2-Italic.otf'
p2217
aS'/usr/share/texmf/fonts/opentype/public/lm/lmroman6-regular.otf'
p2218
aS'/usr/share/fonts/truetype/adf/GilliusADFCd-Bold.otf'
p2219
aS'/usr/share/fonts/opentype/stix/STIXIntegralsUpSm-Regular.otf'
p2220
aS'/usr/share/fonts/truetype/ttf-liberation/LiberationMono-Bold.ttf'
p2221
aS'/usr/share/fonts/opentype/mathjax/MathJax_SansSerif-Regular.otf'
p2222
aS'/usr/share/fonts/truetype/junicode/Junicode-Italic.ttf'
p2223
aS'/usr/share/fonts/truetype/liberation/LiberationSansNarrow-Regular.ttf'
p2224
aS'/usr/share/texmf/fonts/opentype/public/lm/lmmonolt10-oblique.otf'
p2225
aS'/usr/share/fonts/opentype/freefont/FreeMono.otf'
p2226
aS'/usr/share/fonts/truetype/droid/DroidSerif-Bold.ttf'
p2227
aS'/usr/share/fonts/truetype/adf/UniversalisADFStd-Regular.otf'
p2228
aS'/usr/share/texmf/fonts/opentype/public/tex-gyre/texgyrebonum-italic.otf'
p2229
aS'/usr/share/fonts/truetype/ttf-liberation/LiberationMono-Italic.ttf'
p2230
aS'/usr/share/fonts/truetype/gentium/GenR102.ttf'
p2231
aS'/usr/share/fonts/truetype/freefont/FreeSansOblique.ttf'
p2232
aS'/usr/share/fonts/truetype/gentium-basic/GenBasB.ttf'
p2233
aS'/usr/share/texmf/fonts/opentype/public/lm/lmromandunh10-oblique.otf'
p2234
aS'/usr/share/fonts/truetype/liberation/LiberationSans-Bold.ttf'
p2235
aS'/usr/share/fonts/truetype/adf/AccanthisADFStdNo3-Bold.otf'
p2236
aS'/usr/share/fonts/truetype/liberation/LiberationMono-Regular.ttf'
p2237
aS'/usr/share/fonts/opentype/mathjax/MathJax_Typewriter-Regular.otf'
p2238
aS'/usr/share/fonts/opentype/stix/STIXVariants-Regular.otf'
p2239
aS'/usr/share/texmf/fonts/opentype/public/lm/lmsans10-regular.otf'
p2240
aS'/usr/share/fonts/truetype/lyx/rsfs10.ttf'
p2241
aS'/usr/share/fonts/truetype/gentium-basic/GenBkBasB.ttf'
p2242
aS'/usr/share/texmf/fonts/opentype/public/lm/lmsans10-oblique.otf'
p2243
aS'/usr/share/fonts/opentype/cabin/Cabin-SemiBoldItalic.otf'
p2244
aS'/usr/share/texmf/fonts/opentype/public/lm/lmsansquot8-regular.otf'
p2245
aS'/usr/share/fonts/truetype/adf/AccanthisADFStd-BoldItalic.otf'
p2246
aS'/usr/share/fonts/opentype/linux-libertine/LinLibertine_DR.otf'
p2247
aS'/usr/share/texmf/fonts/opentype/public/lm/lmmonocaps10-oblique.otf'
p2248
aS'/usr/share/fonts/opentype/lobstertwo/LobsterTwo-Regular.otf'
p2249
aS'/usr/share/texmf/fonts/opentype/public/lm/lmroman10-regular.otf'
p2250
aS'/usr/share/fonts/opentype/freefont/FreeMonoOblique.otf'
p2251
aS'/usr/share/fonts/truetype/lyx/eufm10.ttf'
p2252
aS'/usr/share/fonts/truetype/lyx/esint10.ttf'
p2253
aS'/usr/share/texmf/fonts/opentype/public/lm/lmroman17-regular.otf'
p2254
aS'/usr/share/fonts/opentype/stix/STIXIntegralsUpD-Regular.otf'
p2255
aS'/usr/share/fonts/truetype/lato/Lato-Italic.ttf'
p2256
aS'/usr/share/fonts/truetype/ttf-liberation/LiberationSansNarrow-BoldItalic.ttf'
p2257
aS'/usr/share/fonts/truetype/junicode/Junicode-BoldItalic.ttf'
p2258
aS'/usr/share/fonts/opentype/mathjax/MathJax_SansSerif-Italic.otf'
p2259
aS'/usr/share/texmf/fonts/opentype/public/tex-gyre/texgyreschola-regular.otf'
p2260
aS'/usr/share/texmf/fonts/opentype/public/lm/lmromandemi10-oblique.otf'
p2261
aS'/usr/share/fonts/truetype/lato/Lato-Heavy.ttf'
p2262
aS'/usr/share/fonts/truetype/adf/GilliusADF-BoldItalic.otf'
p2263
aS'/usr/share/fonts/opentype/mathjax/MathJax_Math-Regular.otf'
p2264
aS'/usr/share/fonts/opentype/cabin/Cabin-MediumItalic.otf'
p2265
aS'/usr/share/fonts/truetype/droid/DroidSansGeorgian.ttf'
p2266
aS'/usr/share/fonts/truetype/artemisia/GFSArtemisia.otf'
p2267
aS'/usr/share/fonts/truetype/crosextra/Caladea-Regular.ttf'
p2268
aS'/usr/share/fonts/truetype/fonts-japanese-mincho.ttf'
p2269
aS'/usr/share/texmf/fonts/opentype/public/lm/lmmonolt10-regular.otf'
p2270
aS'/usr/share/fonts/truetype/crosextra/Carlito-Regular.ttf'
p2271
aS'/usr/share/fonts/opentype/linux-libertine/LinLibertine_RI.otf'
p2272
aS'/usr/share/fonts/opentype/linux-libertine/LinBiolinum_R.otf'
p2273
aS'/usr/share/texmf/fonts/opentype/public/lm/lmmonoproplt10-oblique.otf'
p2274
aS'/usr/share/texmf/fonts/opentype/public/lm/lmroman5-bold.otf'
p2275
aS'/usr/share/fonts/truetype/dejavu/DejaVuSansMono.ttf'
p2276
aS'/usr/share/fonts/opentype/mathjax/MathJax_WinIE6-Regular.otf'
p2277
aS'/usr/share/fonts/truetype/openoffice/opens___.ttf'
p2278
aS'/usr/share/fonts/opentype/mathjax/MathJax_Math-Italic.otf'
p2279
aS'/usr/share/texmf/fonts/opentype/public/lm/lmmonolt10-bold.otf'
p2280
aS'/usr/share/fonts/truetype/adf/GilliusADFNo2-Bold.otf'
p2281
aS'/usr/share/texmf/fonts/opentype/public/tex-gyre/texgyretermes-bold.otf'
p2282
aS'/usr/share/fonts/truetype/gentium/GenAR102.ttf'
p2283
aS'/usr/share/fonts/truetype/droid/DroidSerif-Italic.ttf'
p2284
aS'/usr/share/texmf/fonts/opentype/public/lm/lmroman9-regular.otf'
p2285
aS'/usr/share/fonts/opentype/cabin/Cabin-SemiBold.otf'
p2286
aS'/usr/share/fonts/truetype/liberation/LiberationSerif-Italic.ttf'
p2287
aS'/usr/share/fonts/opentype/stix/STIXNonUnicode-Bold.otf'
p2288
aS'/usr/share/fonts/truetype/freefont/FreeSerifBoldItalic.ttf'
p2289
aS'/usr/share/fonts/truetype/lato/Lato-BlackItalic.ttf'
p2290
aS'/usr/share/fonts/truetype/lato/Lato-Light.ttf'
p2291
aS'/usr/share/texmf/fonts/opentype/public/lm/lmsans8-regular.otf'
p2292
aS'/usr/share/fonts/opentype/stix/STIXSizeThreeSym-Bold.otf'
p2293
aS'/usr/share/fonts/opentype/ebgaramond/EBGaramond-InitialsF2.otf'
p2294
aS'/usr/share/fonts/opentype/stix-word/STIX-BoldItalic.otf'
p2295
aS'/usr/share/fonts/truetype/ttf-liberation/LiberationSansNarrow-Bold.ttf'
p2296
aS'/usr/share/texmf/fonts/opentype/public/tex-gyre-math/texgyretermes-math.otf'
p2297
aS'/usr/share/fonts/truetype/droid/DroidSans-Bold.ttf'
p2298
aS'/usr/share/fonts/truetype/neohellenic/GFSNeohellenic.otf'
p2299
aS'/usr/share/fonts/opentype/lobstertwo/LobsterTwo-Italic.otf'
p2300
aS'/usr/share/texmf/fonts/opentype/public/lm/lmromanunsl10-regular.otf'
p2301
aS'/usr/share/texmf/fonts/opentype/public/lm/lmsans9-oblique.otf'
p2302
aS'/usr/share/fonts/truetype/adf/GilliusADFNo2-Regular.otf'
p2303
aS'/usr/share/fonts/truetype/ttf-liberation/LiberationSans-Bold.ttf'
p2304
aS'/usr/share/fonts/truetype/ttf-liberation/LiberationMono-Regular.ttf'
p2305
aS'/usr/share/fonts/truetype/lato/Lato-SemiboldItalic.ttf'
p2306
aS'/usr/share/fonts/truetype/didot-classic/GFSDidotClassic.otf'
p2307
aS'/usr/share/fonts/opentype/linux-libertine/LinBiolinum_RI.otf'
p2308
aS'/usr/share/texmf/fonts/opentype/public/tex-gyre/texgyrebonum-regular.otf'
p2309
aS'/usr/share/fonts/opentype/freefont/FreeSansBoldOblique.otf'
p2310
aS'/usr/share/fonts/truetype/ttf-liberation/LiberationMono-BoldItalic.ttf'
p2311
aS'/usr/share/fonts/opentype/freefont/FreeSerifBoldItalic.otf'
p2312
aS'/usr/share/fonts/opentype/stix/STIXIntegralsUpD-Bold.otf'
p2313
aS'/usr/share/fonts/truetype/ebgaramond/EBGaramond08-SC.ttf'
p2314
aS'/usr/share/fonts/opentype/mathjax/MathJax_Caligraphic-Bold.otf'
p2315
aS'/usr/share/texmf/fonts/opentype/public/lm/lmsans17-oblique.otf'
p2316
aS'/usr/share/fonts/opentype/freefont/FreeMonoBold.otf'
p2317
aS'/usr/share/fonts/opentype/mathjax/MathJax_Math-BoldItalic.otf'
p2318
aS'/usr/share/fonts/truetype/droid/DroidSansHebrew-Regular.ttf'
p2319
asS'_FontManager__default_weight'
p2320
g18
sS'_version'
p2321
I101
sS'ttf_lookup_cache'
p2322
(dp2323
sS'default_size'
p2324
NsS'defaultFont'
p2325
(dp2326
g1840
S'/projects/sage/sage-6.7/local/lib/python2.7/site-packages/matplotlib-1.3.1-py2.7-linux-x86_64.egg/matplotlib/mpl-data/fonts/pdfcorefonts/Symbol.afm'
p2327
sg1842
g1868
ssS'afmfiles'
p2328
(lp2329
g2327
aS'/projects/sage/sage-6.7/local/lib/python2.7/site-packages/matplotlib-1.3.1-py2.7-linux-x86_64.egg/matplotlib/mpl-data/fonts/pdfcorefonts/Courier-BoldOblique.afm'
p2330
aS'/projects/sage/sage-6.7/local/lib/python2.7/site-packages/matplotlib-1.3.1-py2.7-linux-x86_64.egg/matplotlib/mpl-data/fonts/afm/putr8a.afm'
p2331
aS'/projects/sage/sage-6.7/local/lib/python2.7/site-packages/matplotlib-1.3.1-py2.7-linux-x86_64.egg/matplotlib/mpl-data/fonts/afm/phvbo8a.afm'
p2332
aS'/projects/sage/sage-6.7/local/lib/python2.7/site-packages/matplotlib-1.3.1-py2.7-linux-x86_64.egg/matplotlib/mpl-data/fonts/afm/phvb8an.afm'
p2333
aS'/projects/sage/sage-6.7/local/lib/python2.7/site-packages/matplotlib-1.3.1-py2.7-linux-x86_64.egg/matplotlib/mpl-data/fonts/afm/pcrbo8a.afm'
p2334
aS'/projects/sage/sage-6.7/local/lib/python2.7/site-packages/matplotlib-1.3.1-py2.7-linux-x86_64.egg/matplotlib/mpl-data/fonts/afm/cmmi10.afm'
p2335
aS'/projects/sage/sage-6.7/local/lib/python2.7/site-packages/matplotlib-1.3.1-py2.7-linux-x86_64.egg/matplotlib/mpl-data/fonts/pdfcorefonts/Helvetica-Oblique.afm'
p2336
aS'/projects/sage/sage-6.7/local/lib/python2.7/site-packages/matplotlib-1.3.1-py2.7-linux-x86_64.egg/matplotlib/mpl-data/fonts/afm/pplri8a.afm'
p2337
aS'/projects/sage/sage-6.7/local/lib/python2.7/site-packages/matplotlib-1.3.1-py2.7-linux-x86_64.egg/matplotlib/mpl-data/fonts/afm/pbkdi8a.afm'
p2338
aS'/projects/sage/sage-6.7/local/lib/python2.7/site-packages/matplotlib-1.3.1-py2.7-linux-x86_64.egg/matplotlib/mpl-data/fonts/afm/pcrr8a.afm'
p2339
aS'/projects/sage/sage-6.7/local/lib/python2.7/site-packages/matplotlib-1.3.1-py2.7-linux-x86_64.egg/matplotlib/mpl-data/fonts/afm/ptmbi8a.afm'
p2340
aS'/projects/sage/sage-6.7/local/lib/python2.7/site-packages/matplotlib-1.3.1-py2.7-linux-x86_64.egg/matplotlib/mpl-data/fonts/pdfcorefonts/Helvetica-BoldOblique.afm'
p2341
aS'/projects/sage/sage-6.7/local/lib/python2.7/site-packages/matplotlib-1.3.1-py2.7-linux-x86_64.egg/matplotlib/mpl-data/fonts/pdfcorefonts/Helvetica-Bold.afm'
p2342
aS'/projects/sage/sage-6.7/local/lib/python2.7/site-packages/matplotlib-1.3.1-py2.7-linux-x86_64.egg/matplotlib/mpl-data/fonts/afm/psyr.afm'
p2343
aS'/projects/sage/sage-6.7/local/lib/python2.7/site-packages/matplotlib-1.3.1-py2.7-linux-x86_64.egg/matplotlib/mpl-data/fonts/afm/pagd8a.afm'
p2344
aS'/projects/sage/sage-6.7/local/lib/python2.7/site-packages/matplotlib-1.3.1-py2.7-linux-x86_64.egg/matplotlib/mpl-data/fonts/afm/cmr10.afm'
p2345
aS'/projects/sage/sage-6.7/local/lib/python2.7/site-packages/matplotlib-1.3.1-py2.7-linux-x86_64.egg/matplotlib/mpl-data/fonts/pdfcorefonts/ZapfDingbats.afm'
p2346
aS'/projects/sage/sage-6.7/local/lib/python2.7/site-packages/matplotlib-1.3.1-py2.7-linux-x86_64.egg/matplotlib/mpl-data/fonts/afm/pagdo8a.afm'
p2347
aS'/projects/sage/sage-6.7/local/lib/python2.7/site-packages/matplotlib-1.3.1-py2.7-linux-x86_64.egg/matplotlib/mpl-data/fonts/afm/cmsy10.afm'
p2348
aS'/projects/sage/sage-6.7/local/lib/python2.7/site-packages/matplotlib-1.3.1-py2.7-linux-x86_64.egg/matplotlib/mpl-data/fonts/afm/pbkl8a.afm'
p2349
aS'/projects/sage/sage-6.7/local/lib/python2.7/site-packages/matplotlib-1.3.1-py2.7-linux-x86_64.egg/matplotlib/mpl-data/fonts/afm/pplr8a.afm'
p2350
aS'/projects/sage/sage-6.7/local/lib/python2.7/site-packages/matplotlib-1.3.1-py2.7-linux-x86_64.egg/matplotlib/mpl-data/fonts/pdfcorefonts/Times-Italic.afm'
p2351
aS'/projects/sage/sage-6.7/local/lib/python2.7/site-packages/matplotlib-1.3.1-py2.7-linux-x86_64.egg/matplotlib/mpl-data/fonts/afm/phvb8a.afm'
p2352
aS'/projects/sage/sage-6.7/local/lib/python2.7/site-packages/matplotlib-1.3.1-py2.7-linux-x86_64.egg/matplotlib/mpl-data/fonts/afm/pzcmi8a.afm'
p2353
aS'/projects/sage/sage-6.7/local/lib/python2.7/site-packages/matplotlib-1.3.1-py2.7-linux-x86_64.egg/matplotlib/mpl-data/fonts/afm/pcrb8a.afm'
p2354
aS'/projects/sage/sage-6.7/local/lib/python2.7/site-packages/matplotlib-1.3.1-py2.7-linux-x86_64.egg/matplotlib/mpl-data/fonts/afm/cmex10.afm'
p2355
aS'/projects/sage/sage-6.7/local/lib/python2.7/site-packages/matplotlib-1.3.1-py2.7-linux-x86_64.egg/matplotlib/mpl-data/fonts/pdfcorefonts/Times-BoldItalic.afm'
p2356
aS'/projects/sage/sage-6.7/local/lib/python2.7/site-packages/matplotlib-1.3.1-py2.7-linux-x86_64.egg/matplotlib/mpl-data/fonts/afm/putb8a.afm'
p2357
aS'/projects/sage/sage-6.7/local/lib/python2.7/site-packages/matplotlib-1.3.1-py2.7-linux-x86_64.egg/matplotlib/mpl-data/fonts/afm/phvr8an.afm'
p2358
aS'/projects/sage/sage-6.7/local/lib/python2.7/site-packages/matplotlib-1.3.1-py2.7-linux-x86_64.egg/matplotlib/mpl-data/fonts/afm/pzdr.afm'
p2359
aS'/projects/sage/sage-6.7/local/lib/python2.7/site-packages/matplotlib-1.3.1-py2.7-linux-x86_64.egg/matplotlib/mpl-data/fonts/afm/pncbi8a.afm'
p2360
aS'/projects/sage/sage-6.7/local/lib/python2.7/site-packages/matplotlib-1.3.1-py2.7-linux-x86_64.egg/matplotlib/mpl-data/fonts/afm/cmtt10.afm'
p2361
aS'/projects/sage/sage-6.7/local/lib/python2.7/site-packages/matplotlib-1.3.1-py2.7-linux-x86_64.egg/matplotlib/mpl-data/fonts/afm/ptmri8a.afm'
p2362
aS'/projects/sage/sage-6.7/local/lib/python2.7/site-packages/matplotlib-1.3.1-py2.7-linux-x86_64.egg/matplotlib/mpl-data/fonts/afm/phvr8a.afm'
p2363
aS'/projects/sage/sage-6.7/local/lib/python2.7/site-packages/matplotlib-1.3.1-py2.7-linux-x86_64.egg/matplotlib/mpl-data/fonts/afm/phvl8a.afm'
p2364
aS'/projects/sage/sage-6.7/local/lib/python2.7/site-packages/matplotlib-1.3.1-py2.7-linux-x86_64.egg/matplotlib/mpl-data/fonts/afm/phvlo8a.afm'
p2365
aS'/projects/sage/sage-6.7/local/lib/python2.7/site-packages/matplotlib-1.3.1-py2.7-linux-x86_64.egg/matplotlib/mpl-data/fonts/afm/phvro8an.afm'
p2366
aS'/projects/sage/sage-6.7/local/lib/python2.7/site-packages/matplotlib-1.3.1-py2.7-linux-x86_64.egg/matplotlib/mpl-data/fonts/afm/pagk8a.afm'
p2367
aS'/projects/sage/sage-6.7/local/lib/python2.7/site-packages/matplotlib-1.3.1-py2.7-linux-x86_64.egg/matplotlib/mpl-data/fonts/afm/pcrro8a.afm'
p2368
aS'/projects/sage/sage-6.7/local/lib/python2.7/site-packages/matplotlib-1.3.1-py2.7-linux-x86_64.egg/matplotlib/mpl-data/fonts/pdfcorefonts/Courier-Oblique.afm'
p2369
aS'/projects/sage/sage-6.7/local/lib/python2.7/site-packages/matplotlib-1.3.1-py2.7-linux-x86_64.egg/matplotlib/mpl-data/fonts/afm/pplbi8a.afm'
p2370
aS'/projects/sage/sage-6.7/local/lib/python2.7/site-packages/matplotlib-1.3.1-py2.7-linux-x86_64.egg/matplotlib/mpl-data/fonts/afm/putbi8a.afm'
p2371
aS'/projects/sage/sage-6.7/local/lib/python2.7/site-packages/matplotlib-1.3.1-py2.7-linux-x86_64.egg/matplotlib/mpl-data/fonts/afm/pplb8a.afm'
p2372
aS'/projects/sage/sage-6.7/local/lib/python2.7/site-packages/matplotlib-1.3.1-py2.7-linux-x86_64.egg/matplotlib/mpl-data/fonts/afm/pncb8a.afm'
p2373
aS'/projects/sage/sage-6.7/local/lib/python2.7/site-packages/matplotlib-1.3.1-py2.7-linux-x86_64.egg/matplotlib/mpl-data/fonts/afm/pbkd8a.afm'
p2374
aS'/projects/sage/sage-6.7/local/lib/python2.7/site-packages/matplotlib-1.3.1-py2.7-linux-x86_64.egg/matplotlib/mpl-data/fonts/pdfcorefonts/Courier-Bold.afm'
p2375
aS'/projects/sage/sage-6.7/local/lib/python2.7/site-packages/matplotlib-1.3.1-py2.7-linux-x86_64.egg/matplotlib/mpl-data/fonts/afm/ptmr8a.afm'
p2376
aS'/projects/sage/sage-6.7/local/lib/python2.7/site-packages/matplotlib-1.3.1-py2.7-linux-x86_64.egg/matplotlib/mpl-data/fonts/pdfcorefonts/Times-Bold.afm'
p2377
aS'/projects/sage/sage-6.7/local/lib/python2.7/site-packages/matplotlib-1.3.1-py2.7-linux-x86_64.egg/matplotlib/mpl-data/fonts/afm/pncri8a.afm'
p2378
aS'/projects/sage/sage-6.7/local/lib/python2.7/site-packages/matplotlib-1.3.1-py2.7-linux-x86_64.egg/matplotlib/mpl-data/fonts/pdfcorefonts/Times-Roman.afm'
p2379
aS'/projects/sage/sage-6.7/local/lib/python2.7/site-packages/matplotlib-1.3.1-py2.7-linux-x86_64.egg/matplotlib/mpl-data/fonts/afm/pncr8a.afm'
p2380
aS'/projects/sage/sage-6.7/local/lib/python2.7/site-packages/matplotlib-1.3.1-py2.7-linux-x86_64.egg/matplotlib/mpl-data/fonts/pdfcorefonts/Courier.afm'
p2381
aS'/projects/sage/sage-6.7/local/lib/python2.7/site-packages/matplotlib-1.3.1-py2.7-linux-x86_64.egg/matplotlib/mpl-data/fonts/afm/phvbo8an.afm'
p2382
aS'/projects/sage/sage-6.7/local/lib/python2.7/site-packages/matplotlib-1.3.1-py2.7-linux-x86_64.egg/matplotlib/mpl-data/fonts/afm/phvro8a.afm'
p2383
aS'/projects/sage/sage-6.7/local/lib/python2.7/site-packages/matplotlib-1.3.1-py2.7-linux-x86_64.egg/matplotlib/mpl-data/fonts/afm/ptmb8a.afm'
p2384
aS'/projects/sage/sage-6.7/local/lib/python2.7/site-packages/matplotlib-1.3.1-py2.7-linux-x86_64.egg/matplotlib/mpl-data/fonts/afm/pagko8a.afm'
p2385
aS'/projects/sage/sage-6.7/local/lib/python2.7/site-packages/matplotlib-1.3.1-py2.7-linux-x86_64.egg/matplotlib/mpl-data/fonts/afm/putri8a.afm'
p2386
aS'/projects/sage/sage-6.7/local/lib/python2.7/site-packages/matplotlib-1.3.1-py2.7-linux-x86_64.egg/matplotlib/mpl-data/fonts/afm/pbkli8a.afm'
p2387
aS'/projects/sage/sage-6.7/local/lib/python2.7/site-packages/matplotlib-1.3.1-py2.7-linux-x86_64.egg/matplotlib/mpl-data/fonts/pdfcorefonts/Helvetica.afm'
p2388
aS'/usr/share/fonts/X11/Type1/lmtt10.afm'
p2389
aS'/usr/share/fonts/X11/Type1/qcsri.afm'
p2390
aS'/usr/share/fonts/X11/Type1/lmssqo8.afm'
p2391
aS'/usr/share/fonts/type1/texlive-fonts-recommended/uhvro8ac.afm'
p2392
aS'/usr/share/fonts/type1/gsfonts/b018015l.afm'
p2393
aS'/usr/share/fonts/X11/Type1/lmbxo10.afm'
p2394
aS'/usr/share/fonts/type1/texlive-fonts-recommended/pcrro8a.afm'
p2395
aS'/usr/share/fonts/type1/texlive-fonts-recommended/uplbi8a.afm'
p2396
aS'/usr/share/fonts/type1/gsfonts/n022024l.afm'
p2397
aS'/usr/share/fonts/X11/Type1/lmtlc10.afm'
p2398
aS'/usr/share/fonts/X11/Type1/Symbol.afm'
p2399
aS'/usr/share/fonts/X11/Type1/lmtk10.afm'
p2400
aS'/usr/share/fonts/X11/Type1/qbkr.afm'
p2401
aS'/usr/share/fonts/X11/Type1/lmdunh10.afm'
p2402
aS'/usr/share/fonts/type1/gsfonts/n019003l.afm'
p2403
aS'/usr/share/fonts/type1/texlive-fonts-recommended/ucrro8a.afm'
p2404
aS'/usr/share/fonts/type1/texlive-fonts-recommended/ubkli8a.afm'
p2405
aS'/usr/share/fonts/type1/gsfonts/p052004l.afm'
p2406
aS'/usr/share/fonts/type1/texlive-fonts-recommended/uagk8a.afm'
p2407
aS'/usr/share/fonts/type1/texlive-fonts-recommended/uhvro8a.afm'
p2408
aS'/usr/share/fonts/X11/Type1/qcrr.afm'
p2409
aS'/usr/share/fonts/type1/texlive-fonts-recommended/ubkdi8a.afm'
p2410
aS'/usr/share/fonts/type1/gsfonts/c059036l.afm'
p2411
aS'/usr/share/fonts/type1/texlive-fonts-recommended/uncb8a.afm'
p2412
aS'/usr/share/fonts/type1/gsfonts/c059013l.afm'
p2413
aS'/usr/share/fonts/X11/Type1/lmssbx10.afm'
p2414
aS'/usr/share/fonts/X11/Type1/qhvcb.afm'
p2415
aS'/usr/share/fonts/X11/Type1/qtmb.afm'
p2416
aS'/usr/share/fonts/X11/Type1/lmvtlo10.afm'
p2417
aS'/usr/share/fonts/X11/Type1/lmtcso10.afm'
p2418
aS'/usr/share/fonts/X11/Type1/lmtti10.afm'
p2419
aS'/usr/share/fonts/type1/gsfonts/n021024l.afm'
p2420
aS'/usr/share/fonts/type1/gsfonts/n019024l.afm'
p2421
aS'/usr/share/fonts/X11/Type1/qhvbi.afm'
p2422
aS'/usr/share/fonts/X11/Type1/qcsb.afm'
p2423
aS'/usr/share/fonts/X11/Type1/lmbx10.afm'
p2424
aS'/usr/share/fonts/type1/gsfonts/d050000l.afm'
p2425
aS'/usr/share/fonts/X11/Type1/lmssdo10.afm'
p2426
aS'/usr/share/fonts/X11/Type1/lmssqbx8.afm'
p2427
aS'/usr/share/fonts/X11/Type1/qhvb.afm'
p2428
aS'/usr/share/fonts/X11/Type1/lmb10.afm'
p2429
aS'/usr/share/fonts/type1/texlive-fonts-recommended/putri8a.afm'
p2430
aS'/usr/share/fonts/type1/texlive-fonts-recommended/ucrr8a.afm'
p2431
aS'/usr/share/fonts/type1/gsfonts/n019044l.afm'
p2432
aS'/usr/share/fonts/type1/gsfonts/z003034l.afm'
p2433
aS'/usr/share/fonts/type1/texlive-fonts-recommended/uhvr8a.afm'
p2434
aS'/usr/share/fonts/X11/Type1/qhvr.afm'
p2435
aS'/usr/share/fonts/X11/Type1/lmbxi10.afm'
p2436
aS'/usr/share/fonts/type1/texlive-fonts-recommended/putb8a.afm'
p2437
aS'/usr/share/fonts/type1/texlive-fonts-recommended/putr8a.afm'
p2438
aS'/usr/share/fonts/type1/gsfonts/b018012l.afm'
p2439
aS'/usr/share/fonts/X11/Type1/lmro10.afm'
p2440
aS'/usr/share/fonts/X11/Type1/qplr.afm'
p2441
aS'/usr/share/fonts/type1/texlive-fonts-recommended/uhvbo8a.afm'
p2442
aS'/usr/share/fonts/X11/Type1/qcsr.afm'
p2443
aS'/usr/share/fonts/type1/texlive-fonts-recommended/uplri8a.afm'
p2444
aS'/usr/share/fonts/type1/texlive-fonts-recommended/utmri8a.afm'
p2445
aS'/usr/share/fonts/type1/gsfonts/a010013l.afm'
p2446
aS'/usr/share/fonts/type1/texlive-fonts-recommended/ucrb8a.afm'
p2447
aS'/usr/share/fonts/X11/Type1/qagri.afm'
p2448
aS'/usr/share/fonts/X11/Type1/qbkbi.afm'
p2449
aS'/usr/share/fonts/type1/texlive-fonts-recommended/bchbi8a.afm'
p2450
aS'/usr/share/fonts/type1/texlive-fonts-recommended/uncbi8a.afm'
p2451
aS'/usr/share/fonts/X11/Type1/lmcsc10.afm'
p2452
aS'/usr/share/fonts/type1/texlive-fonts-recommended/ubkl8a.afm'
p2453
aS'/usr/share/fonts/X11/Type1/qcrbi.afm'
p2454
aS'/usr/share/fonts/X11/Type1/qcrb.afm'
p2455
aS'/usr/share/fonts/X11/Type1/lmssqbo8.afm'
p2456
aS'/usr/share/fonts/type1/gsfonts/p052003l.afm'
p2457
aS'/usr/share/fonts/type1/gsfonts/b018032l.afm'
p2458
aS'/usr/share/fonts/X11/Type1/lmvtk10.afm'
p2459
aS'/usr/share/fonts/type1/gsfonts/n021023l.afm'
p2460
aS'/usr/share/fonts/X11/Type1/qhvri.afm'
p2461
aS'/usr/share/fonts/X11/Type1/lmtlo10.afm'
p2462
aS'/usr/share/fonts/X11/Type1/lmvtl10.afm'
p2463
aS'/usr/share/fonts/type1/gsfonts/n021003l.afm'
p2464
aS'/usr/share/fonts/X11/Type1/lmsso10.afm'
p2465
aS'/usr/share/fonts/type1/gsfonts/s050000l.afm'
p2466
aS'/usr/share/fonts/type1/gsfonts/n021004l.afm'
p2467
aS'/usr/share/fonts/type1/gsfonts/p052024l.afm'
p2468
aS'/usr/share/fonts/X11/Type1/qtmri.afm'
p2469
aS'/usr/share/fonts/type1/texlive-fonts-recommended/uncr8a.afm'
p2470
aS'/usr/share/fonts/X11/Type1/qbkb.afm'
p2471
aS'/usr/share/fonts/type1/texlive-fonts-recommended/putbi8a.afm'
p2472
aS'/usr/share/fonts/type1/gsfonts/n019063l.afm'
p2473
aS'/usr/share/fonts/X11/Type1/qtmr.afm'
p2474
aS'/usr/share/fonts/X11/Type1/lmtcsc10.afm'
p2475
aS'/usr/share/fonts/X11/Type1/lmcsco10.afm'
p2476
aS'/usr/share/fonts/X11/Type1/qagb.afm'
p2477
aS'/usr/share/fonts/X11/Type1/lmvtto10.afm'
p2478
aS'/usr/share/fonts/type1/texlive-fonts-recommended/pcrbo8a.afm'
p2479
aS'/usr/share/fonts/X11/Type1/lmss10.afm'
p2480
aS'/usr/share/fonts/X11/Type1/lmvtt10.afm'
p2481
aS'/usr/share/fonts/type1/gsfonts/b018035l.afm'
p2482
aS'/usr/share/fonts/X11/Type1/lmduno10.afm'
p2483
aS'/usr/share/fonts/X11/Type1/qtmbi.afm'
p2484
aS'/usr/share/fonts/X11/Type1/qcsbi.afm'
p2485
aS'/usr/share/fonts/type1/texlive-fonts-recommended/pcrb8a.afm'
p2486
aS'/usr/share/fonts/type1/gsfonts/n022004l.afm'
p2487
aS'/usr/share/fonts/type1/mathml/Symbol.afm'
p2488
aS'/usr/share/fonts/X11/Type1/qhvcbi.afm'
p2489
aS'/usr/share/fonts/type1/texlive-fonts-recommended/utmbi8a.afm'
p2490
aS'/usr/share/fonts/type1/texlive-fonts-recommended/uhvr8ac.afm'
p2491
aS'/usr/share/fonts/type1/texlive-fonts-recommended/uzcmi8a.afm'
p2492
aS'/usr/share/fonts/type1/texlive-fonts-recommended/uagd8a.afm'
p2493
aS'/usr/share/fonts/X11/Type1/lmri10.afm'
p2494
aS'/usr/share/fonts/type1/gsfonts/n019004l.afm'
p2495
aS'/usr/share/fonts/X11/Type1/lmr10.afm'
p2496
aS'/usr/share/fonts/type1/gsfonts/a010015l.afm'
p2497
aS'/usr/share/fonts/type1/texlive-fonts-recommended/uncri8a.afm'
p2498
aS'/usr/share/fonts/X11/Type1/lmtl10.afm'
p2499
aS'/usr/share/fonts/type1/texlive-fonts-recommended/usyr.afm'
p2500
aS'/usr/share/fonts/type1/texlive-fonts-recommended/uhvbo8ac.afm'
p2501
aS'/usr/share/fonts/X11/Type1/qplri.afm'
p2502
aS'/usr/share/fonts/X11/Type1/qagbi.afm'
p2503
aS'/usr/share/fonts/X11/Type1/qhvcr.afm'
p2504
aS'/usr/share/fonts/X11/Type1/lmtlco10.afm'
p2505
aS'/usr/share/fonts/type1/gsfonts/c059016l.afm'
p2506
aS'/usr/share/fonts/X11/Type1/qplb.afm'
p2507
aS'/usr/share/fonts/type1/gsfonts/n022003l.afm'
p2508
aS'/usr/share/fonts/type1/gsfonts/a010033l.afm'
p2509
aS'/usr/share/fonts/X11/Type1/lmvtko10.afm'
p2510
aS'/usr/share/fonts/type1/texlive-fonts-recommended/bchri8a.afm'
p2511
aS'/usr/share/fonts/type1/texlive-fonts-recommended/bchb8a.afm'
p2512
aS'/usr/share/fonts/type1/gsfonts/n019043l.afm'
p2513
aS'/usr/share/fonts/type1/texlive-fonts-recommended/uplb8a.afm'
p2514
aS'/usr/share/fonts/X11/Type1/qcrri.afm'
p2515
aS'/usr/share/fonts/type1/texlive-fonts-recommended/ucrbo8a.afm'
p2516
aS'/usr/share/fonts/type1/gsfonts/n019064l.afm'
p2517
aS'/usr/share/fonts/type1/texlive-fonts-recommended/ubkd8a.afm'
p2518
aS'/usr/share/fonts/type1/texlive-fonts-recommended/uagko8a.afm'
p2519
aS'/usr/share/fonts/type1/texlive-fonts-recommended/uplr8a.afm'
p2520
aS'/usr/share/fonts/type1/texlive-fonts-recommended/uhvb8ac.afm'
p2521
aS'/usr/share/fonts/type1/texlive-fonts-recommended/utmb8a.afm'
p2522
aS'/usr/share/fonts/type1/texlive-fonts-recommended/uhvb8a.afm'
p2523
aS'/usr/share/fonts/X11/Type1/lmssq8.afm'
p2524
aS'/usr/share/fonts/X11/Type1/lmssbo10.afm'
p2525
aS'/usr/share/fonts/type1/texlive-fonts-recommended/pcrr8a.afm'
p2526
aS'/usr/share/fonts/X11/Type1/qagr.afm'
p2527
aS'/usr/share/fonts/type1/gsfonts/c059033l.afm'
p2528
aS'/usr/share/fonts/type1/texlive-fonts-recommended/utmr8a.afm'
p2529
aS'/usr/share/fonts/type1/texlive-fonts-recommended/bchr8a.afm'
p2530
aS'/usr/share/fonts/type1/gsfonts/n019023l.afm'
p2531
aS'/usr/share/fonts/X11/Type1/lmtko10.afm'
p2532
aS'/usr/share/fonts/X11/Type1/qzcmi.afm'
p2533
aS'/usr/share/fonts/X11/Type1/lmbo10.afm'
p2534
aS'/usr/share/fonts/type1/gsfonts/p052023l.afm'
p2535
aS'/usr/share/fonts/X11/Type1/qplbi.afm'
p2536
aS'/usr/share/fonts/type1/texlive-fonts-recommended/uagdo8a.afm'
p2537
aS'/usr/share/fonts/X11/Type1/lmssdc10.afm'
p2538
aS'/usr/share/fonts/X11/Type1/lmtto10.afm'
p2539
aS'/usr/share/fonts/type1/gsfonts/n022023l.afm'
p2540
aS'/usr/share/fonts/X11/Type1/qhvcri.afm'
p2541
aS'/usr/share/fonts/type1/gsfonts/a010035l.afm'
p2542
aS'/usr/share/fonts/X11/Type1/qbkri.afm'
p2543
aS'/usr/share/fonts/type1/texlive-fonts-recommended/uzdr.afm'
p2544
aS'/usr/share/fonts/X11/Type1/lmu10.afm'
p2545
asS'afmlist'
p2546
(lp2547
g7
(g8
g9
NtRp2548
(dp2549
g12
g18
sg14
S'Symbol'
p2550
sg16
I500
sg17
g18
sg19
g18
sg20
g2327
sg22
g23
sbag7
(g8
g9
NtRp2551
(dp2552
g12
g38
sg14
S'Courier'
p2553
sg16
I700
sg17
g18
sg19
g18
sg20
g2330
sg22
g23
sbag7
(g8
g9
NtRp2554
(dp2555
g12
g18
sg14
S'Utopia'
p2556
sg16
I400
sg17
g18
sg19
g18
sg20
g2331
sg22
g23
sbag7
(g8
g9
NtRp2557
(dp2558
g12
g38
sg14
S'Helvetica'
p2559
sg16
I700
sg17
g18
sg19
g18
sg20
g2332
sg22
g23
sbag7
(g8
g9
NtRp2560
(dp2561
g12
g18
sg14
S'Helvetica'
p2562
sg16
I700
sg17
g264
sg19
g18
sg20
g2333
sg22
g23
sbag7
(g8
g9
NtRp2563
(dp2564
g12
g38
sg14
S'Courier'
p2565
sg16
I700
sg17
g18
sg19
g18
sg20
g2334
sg22
g23
sbag7
(g8
g9
NtRp2566
(dp2567
g12
g38
sg14
S'Computer Modern'
p2568
sg16
I500
sg17
g18
sg19
g18
sg20
g2335
sg22
g23
sbag7
(g8
g9
NtRp2569
(dp2570
g12
g38
sg14
S'Helvetica'
p2571
sg16
I500
sg17
g18
sg19
g18
sg20
g2336
sg22
g23
sbag7
(g8
g9
NtRp2572
(dp2573
g12
g38
sg14
S'Palatino'
p2574
sg16
I500
sg17
g18
sg19
g18
sg20
g2337
sg22
g23
sbag7
(g8
g9
NtRp2575
(dp2576
g12
g38
sg14
S'ITC Bookman'
p2577
sg16
I600
sg17
g18
sg19
g18
sg20
g2338
sg22
g23
sbag7
(g8
g9
NtRp2578
(dp2579
g12
g18
sg14
S'Courier'
p2580
sg16
I500
sg17
g18
sg19
g18
sg20
g2339
sg22
g23
sbag7
(g8
g9
NtRp2581
(dp2582
g12
g38
sg14
S'Times'
p2583
sg16
I700
sg17
g18
sg19
g18
sg20
g2340
sg22
g23
sbag7
(g8
g9
NtRp2584
(dp2585
g12
g38
sg14
S'Helvetica'
p2586
sg16
I700
sg17
g18
sg19
g18
sg20
g2341
sg22
g23
sbag7
(g8
g9
NtRp2587
(dp2588
g12
g18
sg14
S'Helvetica'
p2589
sg16
I700
sg17
g18
sg19
g18
sg20
g2342
sg22
g23
sbag7
(g8
g9
NtRp2590
(dp2591
g12
g18
sg14
S'Symbol'
p2592
sg16
I500
sg17
g18
sg19
g18
sg20
g2343
sg22
g23
sbag7
(g8
g9
NtRp2593
(dp2594
g12
g18
sg14
S'ITC Avant Garde Gothic'
p2595
sg16
I600
sg17
g18
sg19
g18
sg20
g2344
sg22
g23
sbag7
(g8
g9
NtRp2596
(dp2597
g12
g18
sg14
S'Computer Modern'
p2598
sg16
I500
sg17
g18
sg19
g18
sg20
g2345
sg22
g23
sbag7
(g8
g9
NtRp2599
(dp2600
g12
g18
sg14
S'ZapfDingbats'
p2601
sg16
I500
sg17
g18
sg19
g18
sg20
g2346
sg22
g23
sbag7
(g8
g9
NtRp2602
(dp2603
g12
g38
sg14
S'ITC Avant Garde Gothic'
p2604
sg16
I600
sg17
g18
sg19
g18
sg20
g2347
sg22
g23
sbag7
(g8
g9
NtRp2605
(dp2606
g12
g38
sg14
S'Computer Modern'
p2607
sg16
I500
sg17
g18
sg19
g18
sg20
g2348
sg22
g23
sbag7
(g8
g9
NtRp2608
(dp2609
g12
g18
sg14
S'ITC Bookman'
p2610
sg16
I200
sg17
g18
sg19
g18
sg20
g2349
sg22
g23
sbag7
(g8
g9
NtRp2611
(dp2612
g12
g18
sg14
S'Palatino'
p2613
sg16
I500
sg17
g18
sg19
g18
sg20
g2350
sg22
g23
sbag7
(g8
g9
NtRp2614
(dp2615
g12
g38
sg14
S'Times'
p2616
sg16
I500
sg17
g18
sg19
g18
sg20
g2351
sg22
g23
sbag7
(g8
g9
NtRp2617
(dp2618
g12
g18
sg14
S'Helvetica'
p2619
sg16
I700
sg17
g18
sg19
g18
sg20
g2352
sg22
g23
sbag7
(g8
g9
NtRp2620
(dp2621
g12
g38
sg14
S'ITC Zapf Chancery'
p2622
sg16
I500
sg17
g18
sg19
g18
sg20
g2353
sg22
g23
sbag7
(g8
g9
NtRp2623
(dp2624
g12
g18
sg14
S'Courier'
p2625
sg16
I700
sg17
g18
sg19
g18
sg20
g2354
sg22
g23
sbag7
(g8
g9
NtRp2626
(dp2627
g12
g18
sg14
S'Computer Modern'
p2628
sg16
I500
sg17
g18
sg19
g18
sg20
g2355
sg22
g23
sbag7
(g8
g9
NtRp2629
(dp2630
g12
g38
sg14
S'Times'
p2631
sg16
I700
sg17
g18
sg19
g18
sg20
g2356
sg22
g23
sbag7
(g8
g9
NtRp2632
(dp2633
g12
g18
sg14
S'Utopia'
p2634
sg16
I700
sg17
g18
sg19
g18
sg20
g2357
sg22
g23
sbag7
(g8
g9
NtRp2635
(dp2636
g12
g18
sg14
S'Helvetica'
p2637
sg16
I500
sg17
g264
sg19
g18
sg20
g2358
sg22
g23
sbag7
(g8
g9
NtRp2638
(dp2639
g12
g18
sg14
S'ITC Zapf Dingbats'
p2640
sg16
I500
sg17
g18
sg19
g18
sg20
g2359
sg22
g23
sbag7
(g8
g9
NtRp2641
(dp2642
g12
g38
sg14
S'New Century Schoolbook'
p2643
sg16
I700
sg17
g18
sg19
g18
sg20
g2360
sg22
g23
sbag7
(g8
g9
NtRp2644
(dp2645
g12
g18
sg14
S'Computer Modern'
p2646
sg16
I500
sg17
g18
sg19
g18
sg20
g2361
sg22
g23
sbag7
(g8
g9
NtRp2647
(dp2648
g12
g38
sg14
S'Times'
p2649
sg16
I500
sg17
g18
sg19
g18
sg20
g2362
sg22
g23
sbag7
(g8
g9
NtRp2650
(dp2651
g12
g18
sg14
S'Helvetica'
p2652
sg16
I500
sg17
g18
sg19
g18
sg20
g2363
sg22
g23
sbag7
(g8
g9
NtRp2653
(dp2654
g12
g18
sg14
S'Helvetica'
p2655
sg16
I200
sg17
g18
sg19
g18
sg20
g2364
sg22
g23
sbag7
(g8
g9
NtRp2656
(dp2657
g12
g38
sg14
S'Helvetica'
p2658
sg16
I200
sg17
g18
sg19
g18
sg20
g2365
sg22
g23
sbag7
(g8
g9
NtRp2659
(dp2660
g12
g38
sg14
S'Helvetica'
p2661
sg16
I500
sg17
g264
sg19
g18
sg20
g2366
sg22
g23
sbag7
(g8
g9
NtRp2662
(dp2663
g12
g18
sg14
S'ITC Avant Garde Gothic'
p2664
sg16
I400
sg17
g18
sg19
g18
sg20
g2367
sg22
g23
sbag7
(g8
g9
NtRp2665
(dp2666
g12
g38
sg14
S'Courier'
p2667
sg16
I500
sg17
g18
sg19
g18
sg20
g2368
sg22
g23
sbag7
(g8
g9
NtRp2668
(dp2669
g12
g38
sg14
S'Courier'
p2670
sg16
I500
sg17
g18
sg19
g18
sg20
g2369
sg22
g23
sbag7
(g8
g9
NtRp2671
(dp2672
g12
g38
sg14
S'Palatino'
p2673
sg16
I700
sg17
g18
sg19
g18
sg20
g2370
sg22
g23
sbag7
(g8
g9
NtRp2674
(dp2675
g12
g38
sg14
S'Utopia'
p2676
sg16
I700
sg17
g18
sg19
g18
sg20
g2371
sg22
g23
sbag7
(g8
g9
NtRp2677
(dp2678
g12
g18
sg14
S'Palatino'
p2679
sg16
I700
sg17
g18
sg19
g18
sg20
g2372
sg22
g23
sbag7
(g8
g9
NtRp2680
(dp2681
g12
g18
sg14
S'New Century Schoolbook'
p2682
sg16
I700
sg17
g18
sg19
g18
sg20
g2373
sg22
g23
sbag7
(g8
g9
NtRp2683
(dp2684
g12
g18
sg14
S'ITC Bookman'
p2685
sg16
I600
sg17
g18
sg19
g18
sg20
g2374
sg22
g23
sbag7
(g8
g9
NtRp2686
(dp2687
g12
g18
sg14
S'Courier'
p2688
sg16
I700
sg17
g18
sg19
g18
sg20
g2375
sg22
g23
sbag7
(g8
g9
NtRp2689
(dp2690
g12
g18
sg14
S'Times'
p2691
sg16
I500
sg17
g18
sg19
g18
sg20
g2376
sg22
g23
sbag7
(g8
g9
NtRp2692
(dp2693
g12
g18
sg14
S'Times'
p2694
sg16
I700
sg17
g18
sg19
g18
sg20
g2377
sg22
g23
sbag7
(g8
g9
NtRp2695
(dp2696
g12
g38
sg14
S'New Century Schoolbook'
p2697
sg16
I500
sg17
g18
sg19
g18
sg20
g2378
sg22
g23
sbag7
(g8
g9
NtRp2698
(dp2699
g12
g18
sg14
S'Times'
p2700
sg16
I500
sg17
g18
sg19
g18
sg20
g2379
sg22
g23
sbag7
(g8
g9
NtRp2701
(dp2702
g12
g18
sg14
S'New Century Schoolbook'
p2703
sg16
I500
sg17
g18
sg19
g18
sg20
g2380
sg22
g23
sbag7
(g8
g9
NtRp2704
(dp2705
g12
g18
sg14
S'Courier'
p2706
sg16
I500
sg17
g18
sg19
g18
sg20
g2381
sg22
g23
sbag7
(g8
g9
NtRp2707
(dp2708
g12
g38
sg14
S'Helvetica'
p2709
sg16
I700
sg17
g264
sg19
g18
sg20
g2382
sg22
g23
sbag7
(g8
g9
NtRp2710
(dp2711
g12
g38
sg14
S'Helvetica'
p2712
sg16
I500
sg17
g18
sg19
g18
sg20
g2383
sg22
g23
sbag7
(g8
g9
NtRp2713
(dp2714
g12
g18
sg14
S'Times'
p2715
sg16
I700
sg17
g18
sg19
g18
sg20
g2384
sg22
g23
sbag7
(g8
g9
NtRp2716
(dp2717
g12
g38
sg14
S'ITC Avant Garde Gothic'
p2718
sg16
I400
sg17
g18
sg19
g18
sg20
g2385
sg22
g23
sbag7
(g8
g9
NtRp2719
(dp2720
g12
g38
sg14
S'Utopia'
p2721
sg16
I400
sg17
g18
sg19
g18
sg20
g2386
sg22
g23
sbag7
(g8
g9
NtRp2722
(dp2723
g12
g38
sg14
S'ITC Bookman'
p2724
sg16
I200
sg17
g18
sg19
g18
sg20
g2387
sg22
g23
sbag7
(g8
g9
NtRp2725
(dp2726
g12
g18
sg14
S'Helvetica'
p2727
sg16
I500
sg17
g18
sg19
g18
sg20
g2388
sg22
g23
sbag7
(g8
g9
NtRp2728
(dp2729
g12
g18
sg14
S'LMMono10'
p2730
sg16
I400
sg17
g18
sg19
g18
sg20
g2389
sg22
g23
sbag7
(g8
g9
NtRp2731
(dp2732
g12
g38
sg14
S'TeXGyreSchola'
p2733
sg16
I400
sg17
g18
sg19
g18
sg20
g2390
sg22
g23
sbag7
(g8
g9
NtRp2734
(dp2735
g12
g38
sg14
S'LMSansQuot8'
p2736
sg16
I400
sg17
g18
sg19
g18
sg20
g2391
sg22
g23
sbag7
(g8
g9
NtRp2737
(dp2738
g12
g38
sg14
S'Nimbus Sans L'
p2739
sg16
I400
sg17
g264
sg19
g18
sg20
g2392
sg22
g23
sbag7
(g8
g9
NtRp2740
(dp2741
g12
g18
sg14
S'URW Bookman L'
p2742
sg16
I700
sg17
g18
sg19
g18
sg20
g2393
sg22
g23
sbag7
(g8
g9
NtRp2743
(dp2744
g12
g38
sg14
S'LMRomanSlant10'
p2745
sg16
I700
sg17
g18
sg19
g18
sg20
g2394
sg22
g23
sbag7
(g8
g9
NtRp2746
(dp2747
g12
g38
sg14
S'URW Palladio L'
p2748
sg16
I700
sg17
g18
sg19
g18
sg20
g2396
sg22
g23
sbag7
(g8
g9
NtRp2749
(dp2750
g12
g38
sg14
S'Nimbus Mono L'
p2751
sg16
I700
sg17
g18
sg19
g18
sg20
g2397
sg22
g23
sbag7
(g8
g9
NtRp2752
(dp2753
g12
g18
sg14
S'LMMonoLtCond10'
p2754
sg16
I200
sg17
g264
sg19
g18
sg20
g2398
sg22
g23
sbag7
(g8
g9
NtRp2755
(dp2756
g12
g18
sg14
S'LMMonoLt10'
p2757
sg16
I700
sg17
g18
sg19
g18
sg20
g2400
sg22
g23
sbag7
(g8
g9
NtRp2758
(dp2759
g12
g18
sg14
S'TeXGyreBonum'
p2760
sg16
I400
sg17
g18
sg19
g18
sg20
g2401
sg22
g23
sbag7
(g8
g9
NtRp2761
(dp2762
g12
g18
sg14
S'LMRomanDunh10'
p2763
sg16
I400
sg17
g18
sg19
g18
sg20
g2402
sg22
g23
sbag7
(g8
g9
NtRp2764
(dp2765
g12
g18
sg14
S'Nimbus Sans L'
p2766
sg16
I400
sg17
g18
sg19
g18
sg20
g2403
sg22
g23
sbag7
(g8
g9
NtRp2767
(dp2768
g12
g38
sg14
S'Nimbus Mono L'
p2769
sg16
I400
sg17
g18
sg19
g18
sg20
g2404
sg22
g23
sbag7
(g8
g9
NtRp2770
(dp2771
g12
g38
sg14
S'URW Bookman L'
p2772
sg16
I400
sg17
g18
sg19
g18
sg20
g2405
sg22
g23
sbag7
(g8
g9
NtRp2773
(dp2774
g12
g18
sg14
S'URW Palladio L'
p2775
sg16
I700
sg17
g18
sg19
g18
sg20
g2406
sg22
g23
sbag7
(g8
g9
NtRp2776
(dp2777
g12
g18
sg14
S'URW Gothic L'
p2778
sg16
I400
sg17
g18
sg19
g18
sg20
g2407
sg22
g23
sbag7
(g8
g9
NtRp2779
(dp2780
g12
g38
sg14
S'Nimbus Sans L'
p2781
sg16
I400
sg17
g18
sg19
g18
sg20
g2408
sg22
g23
sbag7
(g8
g9
NtRp2782
(dp2783
g12
g18
sg14
S'TeXGyreCursor'
p2784
sg16
I400
sg17
g18
sg19
g18
sg20
g2409
sg22
g23
sbag7
(g8
g9
NtRp2785
(dp2786
g12
g38
sg14
S'URW Bookman L'
p2787
sg16
I700
sg17
g18
sg19
g18
sg20
g2410
sg22
g23
sbag7
(g8
g9
NtRp2788
(dp2789
g12
g38
sg14
S'Century Schoolbook L'
p2790
sg16
I700
sg17
g18
sg19
g18
sg20
g2411
sg22
g23
sbag7
(g8
g9
NtRp2791
(dp2792
g12
g18
sg14
S'Century Schoolbook L'
p2793
sg16
I700
sg17
g18
sg19
g18
sg20
g2412
sg22
g23
sbag7
(g8
g9
NtRp2794
(dp2795
g12
g18
sg14
S'Century Schoolbook L'
p2796
sg16
I500
sg17
g18
sg19
g18
sg20
g2413
sg22
g23
sbag7
(g8
g9
NtRp2797
(dp2798
g12
g18
sg14
S'LMSans10'
p2799
sg16
I700
sg17
g18
sg19
g18
sg20
g2414
sg22
g23
sbag7
(g8
g9
NtRp2800
(dp2801
g12
g18
sg14
S'TeXGyreHerosCondensed'
p2802
sg16
I700
sg17
g264
sg19
g18
sg20
g2415
sg22
g23
sbag7
(g8
g9
NtRp2803
(dp2804
g12
g18
sg14
S'TeXGyreTermes'
p2805
sg16
I700
sg17
g18
sg19
g18
sg20
g2416
sg22
g23
sbag7
(g8
g9
NtRp2806
(dp2807
g12
g38
sg14
S'LMMonoPropLt10'
p2808
sg16
I200
sg17
g18
sg19
g18
sg20
g2417
sg22
g23
sbag7
(g8
g9
NtRp2809
(dp2810
g12
g38
sg14
S'LMMonoCaps10'
p2811
sg16
I400
sg17
g18
sg19
g18
sg20
g2418
sg22
g23
sbag7
(g8
g9
NtRp2812
(dp2813
g12
g38
sg14
S'LMMono10'
p2814
sg16
I400
sg17
g18
sg19
g18
sg20
g2419
sg22
g23
sbag7
(g8
g9
NtRp2815
(dp2816
g12
g38
sg14
S'Nimbus Roman No9 L'
p2817
sg16
I700
sg17
g18
sg19
g18
sg20
g2420
sg22
g23
sbag7
(g8
g9
NtRp2818
(dp2819
g12
g38
sg14
S'Nimbus Sans L'
p2820
sg16
I700
sg17
g18
sg19
g18
sg20
g2421
sg22
g23
sbag7
(g8
g9
NtRp2821
(dp2822
g12
g38
sg14
S'TeXGyreHeros'
p2823
sg16
I700
sg17
g18
sg19
g18
sg20
g2422
sg22
g23
sbag7
(g8
g9
NtRp2824
(dp2825
g12
g18
sg14
S'TeXGyreSchola'
p2826
sg16
I700
sg17
g18
sg19
g18
sg20
g2423
sg22
g23
sbag7
(g8
g9
NtRp2827
(dp2828
g12
g18
sg14
S'LMRoman10'
p2829
sg16
I700
sg17
g18
sg19
g18
sg20
g2424
sg22
g23
sbag7
(g8
g9
NtRp2830
(dp2831
g12
g18
sg14
S'Dingbats'
p2832
sg16
I400
sg17
g18
sg19
g18
sg20
g2425
sg22
g23
sbag7
(g8
g9
NtRp2833
(dp2834
g12
g38
sg14
S'LMSansDemiCond10'
p2835
sg16
I600
sg17
g264
sg19
g18
sg20
g2426
sg22
g23
sbag7
(g8
g9
NtRp2836
(dp2837
g12
g18
sg14
S'LMSansQuot8'
p2838
sg16
I700
sg17
g18
sg19
g18
sg20
g2427
sg22
g23
sbag7
(g8
g9
NtRp2839
(dp2840
g12
g18
sg14
S'TeXGyreHeros'
p2841
sg16
I700
sg17
g18
sg19
g18
sg20
g2428
sg22
g23
sbag7
(g8
g9
NtRp2842
(dp2843
g12
g18
sg14
S'LMRomanDemi10'
p2844
sg16
I600
sg17
g18
sg19
g18
sg20
g2429
sg22
g23
sbag7
(g8
g9
NtRp2845
(dp2846
g12
g18
sg14
S'Nimbus Mono L'
p2847
sg16
I400
sg17
g18
sg19
g18
sg20
g2431
sg22
g23
sbag7
(g8
g9
NtRp2848
(dp2849
g12
g18
sg14
S'Nimbus Sans L'
p2850
sg16
I700
sg17
g264
sg19
g18
sg20
g2432
sg22
g23
sbag7
(g8
g9
NtRp2851
(dp2852
g12
g38
sg14
S'URW Chancery L'
p2853
sg16
I500
sg17
g18
sg19
g18
sg20
g2433
sg22
g23
sbag7
(g8
g9
NtRp2854
(dp2855
g12
g18
sg14
S'Nimbus Sans L'
p2856
sg16
I400
sg17
g18
sg19
g18
sg20
g2434
sg22
g23
sbag7
(g8
g9
NtRp2857
(dp2858
g12
g18
sg14
S'TeXGyreHeros'
p2859
sg16
I400
sg17
g18
sg19
g18
sg20
g2435
sg22
g23
sbag7
(g8
g9
NtRp2860
(dp2861
g12
g38
sg14
S'LMRoman10'
p2862
sg16
I700
sg17
g18
sg19
g18
sg20
g2436
sg22
g23
sbag7
(g8
g9
NtRp2863
(dp2864
g12
g18
sg14
S'URW Bookman L'
p2865
sg16
I400
sg17
g18
sg19
g18
sg20
g2439
sg22
g23
sbag7
(g8
g9
NtRp2866
(dp2867
g12
g38
sg14
S'LMRomanSlant10'
p2868
sg16
I400
sg17
g18
sg19
g18
sg20
g2440
sg22
g23
sbag7
(g8
g9
NtRp2869
(dp2870
g12
g18
sg14
S'TeXGyrePagella'
p2871
sg16
I400
sg17
g18
sg19
g18
sg20
g2441
sg22
g23
sbag7
(g8
g9
NtRp2872
(dp2873
g12
g38
sg14
S'Nimbus Sans L'
p2874
sg16
I700
sg17
g18
sg19
g18
sg20
g2442
sg22
g23
sbag7
(g8
g9
NtRp2875
(dp2876
g12
g18
sg14
S'TeXGyreSchola'
p2877
sg16
I400
sg17
g18
sg19
g18
sg20
g2443
sg22
g23
sbag7
(g8
g9
NtRp2878
(dp2879
g12
g38
sg14
S'URW Palladio L'
p2880
sg16
I400
sg17
g18
sg19
g18
sg20
g2444
sg22
g23
sbag7
(g8
g9
NtRp2881
(dp2882
g12
g38
sg14
S'Nimbus Roman No9 L'
p2883
sg16
I400
sg17
g18
sg19
g18
sg20
g2445
sg22
g23
sbag7
(g8
g9
NtRp2884
(dp2885
g12
g18
sg14
S'URW Gothic L'
p2886
sg16
I400
sg17
g18
sg19
g18
sg20
g2446
sg22
g23
sbag7
(g8
g9
NtRp2887
(dp2888
g12
g18
sg14
S'Nimbus Mono L'
p2889
sg16
I700
sg17
g18
sg19
g18
sg20
g2447
sg22
g23
sbag7
(g8
g9
NtRp2890
(dp2891
g12
g38
sg14
S'TeXGyreAdventor'
p2892
sg16
I400
sg17
g18
sg19
g18
sg20
g2448
sg22
g23
sbag7
(g8
g9
NtRp2893
(dp2894
g12
g38
sg14
S'TeXGyreBonum'
p2895
sg16
I700
sg17
g18
sg19
g18
sg20
g2449
sg22
g23
sbag7
(g8
g9
NtRp2896
(dp2897
g12
g38
sg14
S'Bitstream Charter'
p2898
sg16
I700
sg17
g18
sg19
g18
sg20
g2450
sg22
g23
sbag7
(g8
g9
NtRp2899
(dp2900
g12
g38
sg14
S'Century Schoolbook L'
p2901
sg16
I700
sg17
g18
sg19
g18
sg20
g2451
sg22
g23
sbag7
(g8
g9
NtRp2902
(dp2903
g12
g18
sg14
S'LMRomanCaps10'
p2904
sg16
I400
sg17
g18
sg19
g18
sg20
g2452
sg22
g23
sbag7
(g8
g9
NtRp2905
(dp2906
g12
g18
sg14
S'URW Bookman L'
p2907
sg16
I400
sg17
g18
sg19
g18
sg20
g2453
sg22
g23
sbag7
(g8
g9
NtRp2908
(dp2909
g12
g38
sg14
S'TeXGyreCursor'
p2910
sg16
I700
sg17
g18
sg19
g18
sg20
g2454
sg22
g23
sbag7
(g8
g9
NtRp2911
(dp2912
g12
g18
sg14
S'TeXGyreCursor'
p2913
sg16
I700
sg17
g18
sg19
g18
sg20
g2455
sg22
g23
sbag7
(g8
g9
NtRp2914
(dp2915
g12
g38
sg14
S'LMSansQuot8'
p2916
sg16
I700
sg17
g18
sg19
g18
sg20
g2456
sg22
g23
sbag7
(g8
g9
NtRp2917
(dp2918
g12
g18
sg14
S'URW Palladio L'
p2919
sg16
I500
sg17
g18
sg19
g18
sg20
g2457
sg22
g23
sbag7
(g8
g9
NtRp2920
(dp2921
g12
g38
sg14
S'URW Bookman L'
p2922
sg16
I400
sg17
g18
sg19
g18
sg20
g2458
sg22
g23
sbag7
(g8
g9
NtRp2923
(dp2924
g12
g18
sg14
S'LMMonoPropLt10'
p2925
sg16
I700
sg17
g18
sg19
g18
sg20
g2459
sg22
g23
sbag7
(g8
g9
NtRp2926
(dp2927
g12
g38
sg14
S'Nimbus Roman No9 L'
p2928
sg16
I400
sg17
g18
sg19
g18
sg20
g2460
sg22
g23
sbag7
(g8
g9
NtRp2929
(dp2930
g12
g38
sg14
S'TeXGyreHeros'
p2931
sg16
I400
sg17
g18
sg19
g18
sg20
g2461
sg22
g23
sbag7
(g8
g9
NtRp2932
(dp2933
g12
g38
sg14
S'LMMonoLt10'
p2934
sg16
I200
sg17
g18
sg19
g18
sg20
g2462
sg22
g23
sbag7
(g8
g9
NtRp2935
(dp2936
g12
g18
sg14
S'LMMonoPropLt10'
p2937
sg16
I200
sg17
g18
sg19
g18
sg20
g2463
sg22
g23
sbag7
(g8
g9
NtRp2938
(dp2939
g12
g18
sg14
S'Nimbus Roman No9 L'
p2940
sg16
I400
sg17
g18
sg19
g18
sg20
g2464
sg22
g23
sbag7
(g8
g9
NtRp2941
(dp2942
g12
g38
sg14
S'LMSans10'
p2943
sg16
I400
sg17
g18
sg19
g18
sg20
g2465
sg22
g23
sbag7
(g8
g9
NtRp2944
(dp2945
g12
g18
sg14
S'Standard Symbols L'
p2946
sg16
I400
sg17
g18
sg19
g18
sg20
g2466
sg22
g23
sbag7
(g8
g9
NtRp2947
(dp2948
g12
g18
sg14
S'Nimbus Roman No9 L'
p2949
sg16
I700
sg17
g18
sg19
g18
sg20
g2467
sg22
g23
sbag7
(g8
g9
NtRp2950
(dp2951
g12
g38
sg14
S'URW Palladio L'
p2952
sg16
I700
sg17
g18
sg19
g18
sg20
g2468
sg22
g23
sbag7
(g8
g9
NtRp2953
(dp2954
g12
g38
sg14
S'TeXGyreTermes'
p2955
sg16
I400
sg17
g18
sg19
g18
sg20
g2469
sg22
g23
sbag7
(g8
g9
NtRp2956
(dp2957
g12
g18
sg14
S'Century Schoolbook L'
p2958
sg16
I500
sg17
g18
sg19
g18
sg20
g2470
sg22
g23
sbag7
(g8
g9
NtRp2959
(dp2960
g12
g18
sg14
S'TeXGyreBonum'
p2961
sg16
I700
sg17
g18
sg19
g18
sg20
g2471
sg22
g23
sbag7
(g8
g9
NtRp2962
(dp2963
g12
g38
sg14
S'Nimbus Sans L'
p2964
sg16
I400
sg17
g264
sg19
g18
sg20
g2473
sg22
g23
sbag7
(g8
g9
NtRp2965
(dp2966
g12
g18
sg14
S'TeXGyreTermes'
p2967
sg16
I400
sg17
g18
sg19
g18
sg20
g2474
sg22
g23
sbag7
(g8
g9
NtRp2968
(dp2969
g12
g18
sg14
S'LMMonoCaps10'
p2970
sg16
I400
sg17
g18
sg19
g18
sg20
g2475
sg22
g23
sbag7
(g8
g9
NtRp2971
(dp2972
g12
g38
sg14
S'LMRomanCaps10'
p2973
sg16
I400
sg17
g18
sg19
g18
sg20
g2476
sg22
g23
sbag7
(g8
g9
NtRp2974
(dp2975
g12
g18
sg14
S'TeXGyreAdventor'
p2976
sg16
I700
sg17
g18
sg19
g18
sg20
g2477
sg22
g23
sbag7
(g8
g9
NtRp2977
(dp2978
g12
g38
sg14
S'LMMonoProp10'
p2979
sg16
I400
sg17
g18
sg19
g18
sg20
g2478
sg22
g23
sbag7
(g8
g9
NtRp2980
(dp2981
g12
g18
sg14
S'LMSans10'
p2982
sg16
I400
sg17
g18
sg19
g18
sg20
g2480
sg22
g23
sbag7
(g8
g9
NtRp2983
(dp2984
g12
g18
sg14
S'LMMonoProp10'
p2985
sg16
I400
sg17
g18
sg19
g18
sg20
g2481
sg22
g23
sbag7
(g8
g9
NtRp2986
(dp2987
g12
g38
sg14
S'URW Bookman L'
p2988
sg16
I700
sg17
g18
sg19
g18
sg20
g2482
sg22
g23
sbag7
(g8
g9
NtRp2989
(dp2990
g12
g38
sg14
S'LMRomanDunh10'
p2991
sg16
I400
sg17
g18
sg19
g18
sg20
g2483
sg22
g23
sbag7
(g8
g9
NtRp2992
(dp2993
g12
g38
sg14
S'TeXGyreTermes'
p2994
sg16
I700
sg17
g18
sg19
g18
sg20
g2484
sg22
g23
sbag7
(g8
g9
NtRp2995
(dp2996
g12
g38
sg14
S'TeXGyreSchola'
p2997
sg16
I400
sg17
g18
sg19
g18
sg20
g2485
sg22
g23
sbag7
(g8
g9
NtRp2998
(dp2999
g12
g18
sg14
S'Nimbus Mono L'
p3000
sg16
I700
sg17
g18
sg19
g18
sg20
g2487
sg22
g23
sbag7
(g8
g9
NtRp3001
(dp3002
g12
g38
sg14
S'TeXGyreHerosCondensed'
p3003
sg16
I700
sg17
g264
sg19
g18
sg20
g2489
sg22
g23
sbag7
(g8
g9
NtRp3004
(dp3005
g12
g38
sg14
S'Nimbus Roman No9 L'
p3006
sg16
I700
sg17
g18
sg19
g18
sg20
g2490
sg22
g23
sbag7
(g8
g9
NtRp3007
(dp3008
g12
g18
sg14
S'Nimbus Sans L'
p3009
sg16
I400
sg17
g264
sg19
g18
sg20
g2491
sg22
g23
sbag7
(g8
g9
NtRp3010
(dp3011
g12
g38
sg14
S'URW Chancery L'
p3012
sg16
I500
sg17
g18
sg19
g18
sg20
g2492
sg22
g23
sbag7
(g8
g9
NtRp3013
(dp3014
g12
g18
sg14
S'URW Gothic L'
p3015
sg16
I600
sg17
g18
sg19
g18
sg20
g2493
sg22
g23
sbag7
(g8
g9
NtRp3016
(dp3017
g12
g38
sg14
S'LMRoman10'
p3018
sg16
I400
sg17
g18
sg19
g18
sg20
g2494
sg22
g23
sbag7
(g8
g9
NtRp3019
(dp3020
g12
g18
sg14
S'Nimbus Sans L'
p3021
sg16
I700
sg17
g18
sg19
g18
sg20
g2495
sg22
g23
sbag7
(g8
g9
NtRp3022
(dp3023
g12
g18
sg14
S'LMRoman10'
p3024
sg16
I400
sg17
g18
sg19
g18
sg20
g2496
sg22
g23
sbag7
(g8
g9
NtRp3025
(dp3026
g12
g18
sg14
S'URW Gothic L'
p3027
sg16
I600
sg17
g18
sg19
g18
sg20
g2497
sg22
g23
sbag7
(g8
g9
NtRp3028
(dp3029
g12
g38
sg14
S'Century Schoolbook L'
p3030
sg16
I400
sg17
g18
sg19
g18
sg20
g2498
sg22
g23
sbag7
(g8
g9
NtRp3031
(dp3032
g12
g18
sg14
S'LMMonoLt10'
p3033
sg16
I200
sg17
g18
sg19
g18
sg20
g2499
sg22
g23
sbag7
(g8
g9
NtRp3034
(dp3035
g12
g18
sg14
S'Standard Symbols L'
p3036
sg16
I400
sg17
g18
sg19
g18
sg20
g2500
sg22
g23
sbag7
(g8
g9
NtRp3037
(dp3038
g12
g38
sg14
S'Nimbus Sans L'
p3039
sg16
I700
sg17
g264
sg19
g18
sg20
g2501
sg22
g23
sbag7
(g8
g9
NtRp3040
(dp3041
g12
g38
sg14
S'TeXGyrePagella'
p3042
sg16
I400
sg17
g18
sg19
g18
sg20
g2502
sg22
g23
sbag7
(g8
g9
NtRp3043
(dp3044
g12
g38
sg14
S'TeXGyreAdventor'
p3045
sg16
I700
sg17
g18
sg19
g18
sg20
g2503
sg22
g23
sbag7
(g8
g9
NtRp3046
(dp3047
g12
g18
sg14
S'TeXGyreHerosCondensed'
p3048
sg16
I400
sg17
g264
sg19
g18
sg20
g2504
sg22
g23
sbag7
(g8
g9
NtRp3049
(dp3050
g12
g38
sg14
S'LMMonoLtCond10'
p3051
sg16
I200
sg17
g264
sg19
g18
sg20
g2505
sg22
g23
sbag7
(g8
g9
NtRp3052
(dp3053
g12
g18
sg14
S'Century Schoolbook L'
p3054
sg16
I700
sg17
g18
sg19
g18
sg20
g2506
sg22
g23
sbag7
(g8
g9
NtRp3055
(dp3056
g12
g18
sg14
S'TeXGyrePagella'
p3057
sg16
I700
sg17
g18
sg19
g18
sg20
g2507
sg22
g23
sbag7
(g8
g9
NtRp3058
(dp3059
g12
g18
sg14
S'Nimbus Mono L'
p3060
sg16
I400
sg17
g18
sg19
g18
sg20
g2508
sg22
g23
sbag7
(g8
g9
NtRp3061
(dp3062
g12
g38
sg14
S'URW Gothic L'
p3063
sg16
I400
sg17
g18
sg19
g18
sg20
g2509
sg22
g23
sbag7
(g8
g9
NtRp3064
(dp3065
g12
g38
sg14
S'LMMonoPropLt10'
p3066
sg16
I700
sg17
g18
sg19
g18
sg20
g2510
sg22
g23
sbag7
(g8
g9
NtRp3067
(dp3068
g12
g38
sg14
S'Bitstream Charter'
p3069
sg16
I400
sg17
g18
sg19
g18
sg20
g2511
sg22
g23
sbag7
(g8
g9
NtRp3070
(dp3071
g12
g18
sg14
S'Bitstream Charter'
p3072
sg16
I700
sg17
g18
sg19
g18
sg20
g2512
sg22
g23
sbag7
(g8
g9
NtRp3073
(dp3074
g12
g18
sg14
S'Nimbus Sans L'
p3075
sg16
I400
sg17
g264
sg19
g18
sg20
g2513
sg22
g23
sbag7
(g8
g9
NtRp3076
(dp3077
g12
g18
sg14
S'URW Palladio L'
p3078
sg16
I700
sg17
g18
sg19
g18
sg20
g2514
sg22
g23
sbag7
(g8
g9
NtRp3079
(dp3080
g12
g38
sg14
S'TeXGyreCursor'
p3081
sg16
I400
sg17
g18
sg19
g18
sg20
g2515
sg22
g23
sbag7
(g8
g9
NtRp3082
(dp3083
g12
g38
sg14
S'Nimbus Mono L'
p3084
sg16
I700
sg17
g18
sg19
g18
sg20
g2516
sg22
g23
sbag7
(g8
g9
NtRp3085
(dp3086
g12
g38
sg14
S'Nimbus Sans L'
p3087
sg16
I700
sg17
g264
sg19
g18
sg20
g2517
sg22
g23
sbag7
(g8
g9
NtRp3088
(dp3089
g12
g18
sg14
S'URW Bookman L'
p3090
sg16
I700
sg17
g18
sg19
g18
sg20
g2518
sg22
g23
sbag7
(g8
g9
NtRp3091
(dp3092
g12
g38
sg14
S'URW Gothic L'
p3093
sg16
I400
sg17
g18
sg19
g18
sg20
g2519
sg22
g23
sbag7
(g8
g9
NtRp3094
(dp3095
g12
g18
sg14
S'URW Palladio L'
p3096
sg16
I500
sg17
g18
sg19
g18
sg20
g2520
sg22
g23
sbag7
(g8
g9
NtRp3097
(dp3098
g12
g18
sg14
S'Nimbus Sans L'
p3099
sg16
I700
sg17
g264
sg19
g18
sg20
g2521
sg22
g23
sbag7
(g8
g9
NtRp3100
(dp3101
g12
g18
sg14
S'Nimbus Roman No9 L'
p3102
sg16
I700
sg17
g18
sg19
g18
sg20
g2522
sg22
g23
sbag7
(g8
g9
NtRp3103
(dp3104
g12
g18
sg14
S'Nimbus Sans L'
p3105
sg16
I700
sg17
g18
sg19
g18
sg20
g2523
sg22
g23
sbag7
(g8
g9
NtRp3106
(dp3107
g12
g18
sg14
S'LMSansQuot8'
p3108
sg16
I400
sg17
g18
sg19
g18
sg20
g2524
sg22
g23
sbag7
(g8
g9
NtRp3109
(dp3110
g12
g38
sg14
S'LMSans10'
p3111
sg16
I700
sg17
g18
sg19
g18
sg20
g2525
sg22
g23
sbag7
(g8
g9
NtRp3112
(dp3113
g12
g18
sg14
S'TeXGyreAdventor'
p3114
sg16
I400
sg17
g18
sg19
g18
sg20
g2527
sg22
g23
sbag7
(g8
g9
NtRp3115
(dp3116
g12
g38
sg14
S'Century Schoolbook L'
p3117
sg16
I400
sg17
g18
sg19
g18
sg20
g2528
sg22
g23
sbag7
(g8
g9
NtRp3118
(dp3119
g12
g18
sg14
S'Nimbus Roman No9 L'
p3120
sg16
I400
sg17
g18
sg19
g18
sg20
g2529
sg22
g23
sbag7
(g8
g9
NtRp3121
(dp3122
g12
g18
sg14
S'Bitstream Charter'
p3123
sg16
I400
sg17
g18
sg19
g18
sg20
g2530
sg22
g23
sbag7
(g8
g9
NtRp3124
(dp3125
g12
g38
sg14
S'Nimbus Sans L'
p3126
sg16
I400
sg17
g18
sg19
g18
sg20
g2531
sg22
g23
sbag7
(g8
g9
NtRp3127
(dp3128
g12
g38
sg14
S'LMMonoLt10'
p3129
sg16
I700
sg17
g18
sg19
g18
sg20
g2532
sg22
g23
sbag7
(g8
g9
NtRp3130
(dp3131
g12
g38
sg14
S'TeXGyreChorus'
p3132
sg16
I500
sg17
g18
sg19
g18
sg20
g2533
sg22
g23
sbag7
(g8
g9
NtRp3133
(dp3134
g12
g38
sg14
S'LMRomanDemi10'
p3135
sg16
I600
sg17
g18
sg19
g18
sg20
g2534
sg22
g23
sbag7
(g8
g9
NtRp3136
(dp3137
g12
g38
sg14
S'URW Palladio L'
p3138
sg16
I400
sg17
g18
sg19
g18
sg20
g2535
sg22
g23
sbag7
(g8
g9
NtRp3139
(dp3140
g12
g38
sg14
S'TeXGyrePagella'
p3141
sg16
I700
sg17
g18
sg19
g18
sg20
g2536
sg22
g23
sbag7
(g8
g9
NtRp3142
(dp3143
g12
g38
sg14
S'URW Gothic L'
p3144
sg16
I600
sg17
g18
sg19
g18
sg20
g2537
sg22
g23
sbag7
(g8
g9
NtRp3145
(dp3146
g12
g18
sg14
S'LMSansDemiCond10'
p3147
sg16
I600
sg17
g264
sg19
g18
sg20
g2538
sg22
g23
sbag7
(g8
g9
NtRp3148
(dp3149
g12
g38
sg14
S'LMMonoSlant10'
p3150
sg16
I400
sg17
g18
sg19
g18
sg20
g2539
sg22
g23
sbag7
(g8
g9
NtRp3151
(dp3152
g12
g38
sg14
S'Nimbus Mono L'
p3153
sg16
I400
sg17
g18
sg19
g18
sg20
g2540
sg22
g23
sbag7
(g8
g9
NtRp3154
(dp3155
g12
g38
sg14
S'TeXGyreHerosCondensed'
p3156
sg16
I400
sg17
g264
sg19
g18
sg20
g2541
sg22
g23
sbag7
(g8
g9
NtRp3157
(dp3158
g12
g38
sg14
S'URW Gothic L'
p3159
sg16
I600
sg17
g18
sg19
g18
sg20
g2542
sg22
g23
sbag7
(g8
g9
NtRp3160
(dp3161
g12
g38
sg14
S'TeXGyreBonum'
p3162
sg16
I400
sg17
g18
sg19
g18
sg20
g2543
sg22
g23
sbag7
(g8
g9
NtRp3163
(dp3164
g12
g18
sg14
S'Dingbats'
p3165
sg16
I400
sg17
g18
sg19
g18
sg20
g2544
sg22
g23
sbag7
(g8
g9
NtRp3166
(dp3167
g12
g18
sg14
S'LMRomanUnsl10'
p3168
sg16
I400
sg17
g18
sg19
g18
sg20
g2545
sg22
g23
sbasb.