(dp1
S'sage.sandpiles.all'
p2
(lp3
S'Sandpile'
p4
aS'SandpileConfig'
p5
aS'SandpileDivisor'
p6
aS'admissible_partitions'
p7
aS'aztec_sandpile'
p8
aS'complete_sandpile'
p9
aS'firing_graph'
p10
aS'firing_vector'
p11
aS'glue_graphs'
p12
aS'grid_sandpile'
p13
aS'min_cycles'
p14
aS'parallel_firing_graph'
p15
aS'partition_sandpile'
p16
aS'random_DAG'
p17
aS'random_digraph'
p18
aS'random_tree'
p19
aS'sandlib'
p20
aS'triangle_sandpile'
p21
aS'wilmes_algorithm'
p22
asS'sage.dynamics.interval_exchanges.all'
p23
(lp24
S'iet'
p25
aS'lazy_import'
p26
asS'sage.dynamics.flat_surfaces.all'
p27
(lp28
S'AbelianStrata'
p29
aS'AbelianStratum'
p30
aS'QuadraticStratum'
p31
ag26
asS'sage.env'
p32
(lp33
S'DOT_SAGE'
p34
aS'HOSTNAME'
p35
aS'LOCAL_IDENTIFIER'
p36
aS'PYTHON_EGG_CACHE'
p37
aS'REALM'
p38
aS'SAGE_DATE'
p39
aS'SAGE_DISTFILES'
p40
aS'SAGE_DOC'
p41
aS'SAGE_DOT_GIT'
p42
aS'SAGE_ENV'
p43
aS'SAGE_ETC'
p44
aS'SAGE_EXTCODE'
p45
aS'SAGE_IMPORTALL'
p46
aS'SAGE_LIB'
p47
aS'SAGE_LOCAL'
p48
aS'SAGE_LOGS'
p49
aS'SAGE_REPO_ANONYMOUS'
p50
aS'SAGE_REPO_AUTHENTICATED'
p51
aS'SAGE_ROOT'
p52
aS'SAGE_SHARE'
p53
aS'SAGE_SPKG_INST'
p54
aS'SAGE_SRC'
p55
aS'SAGE_STARTUP_FILE'
p56
aS'SAGE_URL'
p57
aS'SAGE_VERSION'
p58
aS'SITE_PACKAGES'
p59
aS'TRAC_SERVER_URI'
p60
aS'UNAME'
p61
as.